"File: isr.c         Assembler  Version HGASM0202      Page 1


   1  0000              ; Generated by holtek-gcc v3.19, Tue Apr 16 15:16:59 2024
   2  0000              ; 
   3  0000              ; Configuration:
   4  0000              ;       without long instruction
   5  0000              ;       Single ROM, Multi-RAM
   6  0000              ;       bits_per_rom_unit:16
   7  0000              ;       with mp1
   8  0000              ;       with tbhp, address(0x9)
   9  0000              ;          Use tabrd-const
  10  0000              ;       
  11  0000              ;       
  12  0000              ;       
  13  0000              ; use 'tabrdc' instead of 'tabrd'
  14  0000              ;       
  15  0000              
  16  0000              #pragma translator "holtek-gcc 4.6.4" "3.19" "build 20130711"
  17  0000              ; Rebuild 718
  18  0000              
  19  0000              ir equ [2]
  20  0000              mp equ [3]
  21  0000              sbp equ [1]
  22  0000              acc equ [5]
  23  0000              bp equ [4]
  24  0000              tblp equ [7]
  25  0000              tbhp equ [9]
  26  0000              status equ [10]
  27  0000              c equ [10].0
  28  0000              ac equ [10].1
  29  0000              z equ [10].2
  30  0000              ov equ [10].3
  31  0000              intc equ [11]
  32  0000              
  33  0000              extern ra:byte
  34  0000              extern rb:byte
  35  0000              extern rc:byte
  36  0000              extern rd:byte
  37  0000              extern re:byte
  38  0000              extern rf:byte
  39  0000              extern rg:byte
  40  0000              extern rh:byte
  41  0000              extern _Crom2Prom:near
  42  0000              extern _Crom2PromNext:near
  43  0000              
  44  0000              RAMBANK 0 @HCCINIT, @HCCINIT0
  45  0000              
  46  0000              RAMBANK 0 @BITDATASEC, @BITDATASEC1
  47  0000              @HCCINIT	.section 'data'
  48  0000              @HCCINIT0	.section 'data'
  49  0000              @BITDATASEC	 .section 'data'
  50  0000              @BITDATASEC1	 .section 'data'
  51  0000              
  52  0000              #pragma debug scope 1 1
  53  0000              	extern __DELAY3:near
  54  0000              	extern __DELAYX3:near
  55  0000              	extern __DELAYX6:near
  56  0000              	extern __DELAYY5:near
  57  0000              	extern __DELAYY3:near
  58  0000              	extern _builtin_holtek_delay_2:byte
  59  0000              ___pa equ [20]
"File: isr.ASM       Assembler  Version HGASM0202      Page 2

  60  0000              ___intc0 equ [14]
  61  0000              public _timer_ISR
  62  0000              #pragma debug scope 2 1

  37  0000              #line 37 "C:\Users\Huy Le\Documents\VSHOME\SONHA\IWH_SH_I2C\SH1051_PUMP\SH1051_BS84B08C_PUMP\USER_PROGRAM\isr.c"
  37  0000              @timer_ISR_code .section at 12 'code'
  37  0000  0080     E  	mov r1,a
  37  0001  070A        	mov a,status
  37  0002  0080     E  	mov r2,a
  37  0003  2800     R  	jmp _timer_ISR
  37  0004              #pragma debug scope 1 1
  37  0004              @dummy12 endp
  37  0004              #pragma debug scope 3 1
  37  0000              _timer_ISR .section 'code'
  37  0000              _timer_ISR proc
  38  0000              #line 38 "C:\Users\Huy Le\Documents\VSHOME\SONHA\IWH_SH_I2C\SH1051_PUMP\SH1051_BS84B08C_PUMP\USER_PROGRAM\isr.c"
  38  0000  1480     R  	inc _u8_timer_int_counter[0]
  40  0001              #line 40 "C:\Users\Huy Le\Documents\VSHOME\SONHA\IWH_SH_I2C\SH1051_PUMP\SH1051_BS84B08C_PUMP\USER_PROGRAM\isr.c"
  40  0001  0700     R  	mov a,_u16_timer_for_buzzer[0]
  40  0002  0500     R  	or a,_u16_timer_for_buzzer[1]
  40  0003  3D0A        	sz z
  40  0004  2800     R  	jmp _L2
  42  0005              #line 42 "C:\Users\Huy Le\Documents\VSHOME\SONHA\IWH_SH_I2C\SH1051_PUMP\SH1051_BS84B08C_PUMP\USER_PROGRAM\isr.c"
  42  0005  0FFF        	mov a,255
  42  0006  0380     R  	addm a,_u16_timer_for_buzzer[0]
  42  0007  0FFF        	mov a,255
  42  0008  1380     R  	adcm a,_u16_timer_for_buzzer[1]
  43  0009              #line 43 "C:\Users\Huy Le\Documents\VSHOME\SONHA\IWH_SH_I2C\SH1051_PUMP\SH1051_BS84B08C_PUMP\USER_PROGRAM\isr.c"
  43  0009  1114        	swapa [20]
  43  000A  1885        	rl acc
  43  000B  0E1F        	and a,1fh
  43  000C  0080     E  	mov ra,a
  43  000D  0F01        	mov a,1
  43  000E  0480     E  	xorm a,ra
  43  000F  0F01        	mov a,1
  43  0010  0680     E  	andm a,ra
  43  0011  1100     E  	swapa ra
  43  0012  1985        	rr acc
  43  0013  0EF8        	and a,0f8h
  43  0014  0080     E  	mov ra,a
  43  0015  3594        	clr [20].3
  43  0016  0700     E  	mov a,ra
  43  0017  0594        	orm a,[20]
  43  0018              _L2:
  46  0018              #line 46 "C:\Users\Huy Le\Documents\VSHOME\SONHA\IWH_SH_I2C\SH1051_PUMP\SH1051_BS84B08C_PUMP\USER_PROGRAM\isr.c"
  46  0018  3800     R  	snz _b_forever_buzzer
  46  0019  2800     R  	jmp _L3
  48  001A              #line 48 "C:\Users\Huy Le\Documents\VSHOME\SONHA\IWH_SH_I2C\SH1051_PUMP\SH1051_BS84B08C_PUMP\USER_PROGRAM\isr.c"
  48  001A  1114        	swapa [20]
  48  001B  1885        	rl acc
  48  001C  0E1F        	and a,1fh
  48  001D  0080     E  	mov ra,a
  48  001E  0F01        	mov a,1
  48  001F  0480     E  	xorm a,ra
  48  0020  0F01        	mov a,1
  48  0021  0680     E  	andm a,ra
  48  0022  1100     E  	swapa ra
  48  0023  1985        	rr acc
  48  0024  0EF8        	and a,0f8h
  48  0025  0080     E  	mov ra,a
"File: isr.c         Assembler  Version HGASM0202      Page 3

  48  0026  3594        	clr [20].3
  48  0027  0700     E  	mov a,ra
  48  0028  0594        	orm a,[20]
  48  0029              _L3:
  53  0029              #line 53 "C:\Users\Huy Le\Documents\VSHOME\SONHA\IWH_SH_I2C\SH1051_PUMP\SH1051_BS84B08C_PUMP\USER_PROGRAM\isr.c"
  53  0029  0F07        	mov a,7
  53  002A  0200     R  	sub a,_u8_timer_int_counter[0]
  53  002B  3C0A        	sz c
  53  002C  2800     R  	jmp _L4
  55  002D              #line 55 "C:\Users\Huy Le\Documents\VSHOME\SONHA\IWH_SH_I2C\SH1051_PUMP\SH1051_BS84B08C_PUMP\USER_PROGRAM\isr.c"
  55  002D  1F00     R  	clr _u8_timer_int_counter[0]
  56  002E              #line 56 "C:\Users\Huy Le\Documents\VSHOME\SONHA\IWH_SH_I2C\SH1051_PUMP\SH1051_BS84B08C_PUMP\USER_PROGRAM\isr.c"
  56  002E  1480     R  	inc _u8_1ms_timer_counter[0]
  57  002F              #line 57 "C:\Users\Huy Le\Documents\VSHOME\SONHA\IWH_SH_I2C\SH1051_PUMP\SH1051_BS84B08C_PUMP\USER_PROGRAM\isr.c"
  57  002F  3000     R  	set _b_flag_1ms
  57  0030              _L4:
  60  0030              #line 60 "C:\Users\Huy Le\Documents\VSHOME\SONHA\IWH_SH_I2C\SH1051_PUMP\SH1051_BS84B08C_PUMP\USER_PROGRAM\isr.c"
  60  0030  0F01        	mov a,1
  60  0031  0200     R  	sub a,_u8_1ms_timer_counter[0]
  60  0032  3C0A        	sz c
  60  0033  2800     R  	jmp _L5
  62  0034              #line 62 "C:\Users\Huy Le\Documents\VSHOME\SONHA\IWH_SH_I2C\SH1051_PUMP\SH1051_BS84B08C_PUMP\USER_PROGRAM\isr.c"
  62  0034  1F00     R  	clr _u8_1ms_timer_counter[0]
  63  0035              #line 63 "C:\Users\Huy Le\Documents\VSHOME\SONHA\IWH_SH_I2C\SH1051_PUMP\SH1051_BS84B08C_PUMP\USER_PROGRAM\isr.c"
  63  0035  1480     R  	inc _u8_2ms_timer_counter[0]
  64  0036              #line 64 "C:\Users\Huy Le\Documents\VSHOME\SONHA\IWH_SH_I2C\SH1051_PUMP\SH1051_BS84B08C_PUMP\USER_PROGRAM\isr.c"
  64  0036  3000     R  	set _b_flag_2ms
  65  0037              #line 65 "C:\Users\Huy Le\Documents\VSHOME\SONHA\IWH_SH_I2C\SH1051_PUMP\SH1051_BS84B08C_PUMP\USER_PROGRAM\isr.c"
  65  0037  3000     R  	set _b_flag2msInStart
  66  0038              #line 66 "C:\Users\Huy Le\Documents\VSHOME\SONHA\IWH_SH_I2C\SH1051_PUMP\SH1051_BS84B08C_PUMP\USER_PROGRAM\isr.c"
  66  0038  3000     R  	set _b_flag2msInTest
  67  0039              #line 67 "C:\Users\Huy Le\Documents\VSHOME\SONHA\IWH_SH_I2C\SH1051_PUMP\SH1051_BS84B08C_PUMP\USER_PROGRAM\isr.c"
  67  0039  3000     R  	set _b_flag2msInPower
  68  003A              #line 68 "C:\Users\Huy Le\Documents\VSHOME\SONHA\IWH_SH_I2C\SH1051_PUMP\SH1051_BS84B08C_PUMP\USER_PROGRAM\isr.c"
  68  003A  3000     R  	set _b_flag2msInPowerOn
  68  003B              _L5:
  71  003B              #line 71 "C:\Users\Huy Le\Documents\VSHOME\SONHA\IWH_SH_I2C\SH1051_PUMP\SH1051_BS84B08C_PUMP\USER_PROGRAM\isr.c"
  71  003B  0F04        	mov a,4
  71  003C  0200     R  	sub a,_u8_2ms_timer_counter[0]
  71  003D  3C0A        	sz c
  71  003E  2800     R  	jmp _L6
  73  003F              #line 73 "C:\Users\Huy Le\Documents\VSHOME\SONHA\IWH_SH_I2C\SH1051_PUMP\SH1051_BS84B08C_PUMP\USER_PROGRAM\isr.c"
  73  003F  1F00     R  	clr _u8_2ms_timer_counter[0]
  74  0040              #line 74 "C:\Users\Huy Le\Documents\VSHOME\SONHA\IWH_SH_I2C\SH1051_PUMP\SH1051_BS84B08C_PUMP\USER_PROGRAM\isr.c"
  74  0040  1480     R  	inc _u8_10ms_timer_counter[0]
  75  0041              #line 75 "C:\Users\Huy Le\Documents\VSHOME\SONHA\IWH_SH_I2C\SH1051_PUMP\SH1051_BS84B08C_PUMP\USER_PROGRAM\isr.c"
  75  0041  3000     R  	set _b_flag_10ms
  76  0042              #line 76 "C:\Users\Huy Le\Documents\VSHOME\SONHA\IWH_SH_I2C\SH1051_PUMP\SH1051_BS84B08C_PUMP\USER_PROGRAM\isr.c"
  76  0042  3000     R  	set _b_flag10msInStart
  77  0043              #line 77 "C:\Users\Huy Le\Documents\VSHOME\SONHA\IWH_SH_I2C\SH1051_PUMP\SH1051_BS84B08C_PUMP\USER_PROGRAM\isr.c"
  77  0043  3000     R  	set _b_flag10msInTest
  78  0044              #line 78 "C:\Users\Huy Le\Documents\VSHOME\SONHA\IWH_SH_I2C\SH1051_PUMP\SH1051_BS84B08C_PUMP\USER_PROGRAM\isr.c"
  78  0044  3000     R  	set _b_flag10msInPower
  79  0045              #line 79 "C:\Users\Huy Le\Documents\VSHOME\SONHA\IWH_SH_I2C\SH1051_PUMP\SH1051_BS84B08C_PUMP\USER_PROGRAM\isr.c"
  79  0045  3000     R  	set _b_flag10msInPowerOn
  79  0046              _L6:
  83  0046              #line 83 "C:\Users\Huy Le\Documents\VSHOME\SONHA\IWH_SH_I2C\SH1051_PUMP\SH1051_BS84B08C_PUMP\USER_PROGRAM\isr.c"
  83  0046  0F09        	mov a,9
  83  0047  0200     R  	sub a,_u8_10ms_timer_counter[0]
  83  0048  3C0A        	sz c
"File: isr.c         Assembler  Version HGASM0202      Page 4

  83  0049  2800     R  	jmp _L7
  85  004A              #line 85 "C:\Users\Huy Le\Documents\VSHOME\SONHA\IWH_SH_I2C\SH1051_PUMP\SH1051_BS84B08C_PUMP\USER_PROGRAM\isr.c"
  85  004A  1F00     R  	clr _u8_10ms_timer_counter[0]
  86  004B              #line 86 "C:\Users\Huy Le\Documents\VSHOME\SONHA\IWH_SH_I2C\SH1051_PUMP\SH1051_BS84B08C_PUMP\USER_PROGRAM\isr.c"
  86  004B  1480     R  	inc _u8_100ms_timer_counter[0]
  87  004C              #line 87 "C:\Users\Huy Le\Documents\VSHOME\SONHA\IWH_SH_I2C\SH1051_PUMP\SH1051_BS84B08C_PUMP\USER_PROGRAM\isr.c"
  87  004C  3000     R  	set _b_flag_100ms
  88  004D              #line 88 "C:\Users\Huy Le\Documents\VSHOME\SONHA\IWH_SH_I2C\SH1051_PUMP\SH1051_BS84B08C_PUMP\USER_PROGRAM\isr.c"
  88  004D  3000     R  	set _b_flag100msInStart
  89  004E              #line 89 "C:\Users\Huy Le\Documents\VSHOME\SONHA\IWH_SH_I2C\SH1051_PUMP\SH1051_BS84B08C_PUMP\USER_PROGRAM\isr.c"
  89  004E  3000     R  	set _b_flag100msInTest
  90  004F              #line 90 "C:\Users\Huy Le\Documents\VSHOME\SONHA\IWH_SH_I2C\SH1051_PUMP\SH1051_BS84B08C_PUMP\USER_PROGRAM\isr.c"
  90  004F  3000     R  	set _b_flag100msInPower
  91  0050              #line 91 "C:\Users\Huy Le\Documents\VSHOME\SONHA\IWH_SH_I2C\SH1051_PUMP\SH1051_BS84B08C_PUMP\USER_PROGRAM\isr.c"
  91  0050  3000     R  	set _b_flag100msInPowerOn
  91  0051              _L7:
  95  0051              #line 95 "C:\Users\Huy Le\Documents\VSHOME\SONHA\IWH_SH_I2C\SH1051_PUMP\SH1051_BS84B08C_PUMP\USER_PROGRAM\isr.c"
  95  0051  0F04        	mov a,4
  95  0052  0200     R  	sub a,_u8_100ms_timer_counter[0]
  95  0053  3C0A        	sz c
  95  0054  2800     R  	jmp _L8
  97  0055              #line 97 "C:\Users\Huy Le\Documents\VSHOME\SONHA\IWH_SH_I2C\SH1051_PUMP\SH1051_BS84B08C_PUMP\USER_PROGRAM\isr.c"
  97  0055  1F00     R  	clr _u8_100ms_timer_counter[0]
  98  0056              #line 98 "C:\Users\Huy Le\Documents\VSHOME\SONHA\IWH_SH_I2C\SH1051_PUMP\SH1051_BS84B08C_PUMP\USER_PROGRAM\isr.c"
  98  0056  1480     R  	inc _u8_500ms_timer_counter[0]
  99  0057              #line 99 "C:\Users\Huy Le\Documents\VSHOME\SONHA\IWH_SH_I2C\SH1051_PUMP\SH1051_BS84B08C_PUMP\USER_PROGRAM\isr.c"
  99  0057  3000     R  	set _b_flag_500ms
 100  0058              #line 100 "C:\Users\Huy Le\Documents\VSHOME\SONHA\IWH_SH_I2C\SH1051_PUMP\SH1051_BS84B08C_PUMP\USER_PROGRAM\isr.c"
 100  0058  3000     R  	set _b_flag500msInStart
 101  0059              #line 101 "C:\Users\Huy Le\Documents\VSHOME\SONHA\IWH_SH_I2C\SH1051_PUMP\SH1051_BS84B08C_PUMP\USER_PROGRAM\isr.c"
 101  0059  3000     R  	set _b_flag500msInTest
 102  005A              #line 102 "C:\Users\Huy Le\Documents\VSHOME\SONHA\IWH_SH_I2C\SH1051_PUMP\SH1051_BS84B08C_PUMP\USER_PROGRAM\isr.c"
 102  005A  3000     R  	set _b_flag500msInPower
 103  005B              #line 103 "C:\Users\Huy Le\Documents\VSHOME\SONHA\IWH_SH_I2C\SH1051_PUMP\SH1051_BS84B08C_PUMP\USER_PROGRAM\isr.c"
 103  005B  3000     R  	set _b_flag500msInPowerOn
 104  005C              #line 104 "C:\Users\Huy Le\Documents\VSHOME\SONHA\IWH_SH_I2C\SH1051_PUMP\SH1051_BS84B08C_PUMP\USER_PROGRAM\isr.c"
 104  005C  3000     R  	set _b_flag500msInPowerOff
 104  005D              _L8:
 107  005D              #line 107 "C:\Users\Huy Le\Documents\VSHOME\SONHA\IWH_SH_I2C\SH1051_PUMP\SH1051_BS84B08C_PUMP\USER_PROGRAM\isr.c"
 107  005D  0F01        	mov a,1
 107  005E  0200     R  	sub a,_u8_500ms_timer_counter[0]
 107  005F  3C0A        	sz c
 107  0060  2800     R  	jmp _L9
 109  0061              #line 109 "C:\Users\Huy Le\Documents\VSHOME\SONHA\IWH_SH_I2C\SH1051_PUMP\SH1051_BS84B08C_PUMP\USER_PROGRAM\isr.c"
 109  0061  1F00     R  	clr _u8_500ms_timer_counter[0]
 110  0062              #line 110 "C:\Users\Huy Le\Documents\VSHOME\SONHA\IWH_SH_I2C\SH1051_PUMP\SH1051_BS84B08C_PUMP\USER_PROGRAM\isr.c"
 110  0062  1480     R  	inc _u8_1s_timer_counter[0]
 111  0063              #line 111 "C:\Users\Huy Le\Documents\VSHOME\SONHA\IWH_SH_I2C\SH1051_PUMP\SH1051_BS84B08C_PUMP\USER_PROGRAM\isr.c"
 111  0063  3000     R  	set _b_flag_1s
 112  0064              #line 112 "C:\Users\Huy Le\Documents\VSHOME\SONHA\IWH_SH_I2C\SH1051_PUMP\SH1051_BS84B08C_PUMP\USER_PROGRAM\isr.c"
 112  0064  3000     R  	set _b_flag1sInStart
 112  0065              _L9:
 115  0065              #line 115 "C:\Users\Huy Le\Documents\VSHOME\SONHA\IWH_SH_I2C\SH1051_PUMP\SH1051_BS84B08C_PUMP\USER_PROGRAM\isr.c"
 115  0065  0F01        	mov a,1
 115  0066  0200     R  	sub a,_u8_1s_timer_counter[0]
 115  0067  3C0A        	sz c
 115  0068  2800     R  	jmp _L10
 117  0069              #line 117 "C:\Users\Huy Le\Documents\VSHOME\SONHA\IWH_SH_I2C\SH1051_PUMP\SH1051_BS84B08C_PUMP\USER_PROGRAM\isr.c"
 117  0069  1F00     R  	clr _u8_1s_timer_counter[0]
 118  006A              #line 118 "C:\Users\Huy Le\Documents\VSHOME\SONHA\IWH_SH_I2C\SH1051_PUMP\SH1051_BS84B08C_PUMP\USER_PROGRAM\isr.c"
"File: isr.c         Assembler  Version HGASM0202      Page 5

 118  006A  1480     R  	inc _u8_2s_timer_counter[0]
 119  006B              #line 119 "C:\Users\Huy Le\Documents\VSHOME\SONHA\IWH_SH_I2C\SH1051_PUMP\SH1051_BS84B08C_PUMP\USER_PROGRAM\isr.c"
 119  006B  3000     R  	set _b_flag_2s
 120  006C              #line 120 "C:\Users\Huy Le\Documents\VSHOME\SONHA\IWH_SH_I2C\SH1051_PUMP\SH1051_BS84B08C_PUMP\USER_PROGRAM\isr.c"
 120  006C  3000     R  	set _b_flag2sInStart
 120  006D              _L10:
 123  006D              #line 123 "C:\Users\Huy Le\Documents\VSHOME\SONHA\IWH_SH_I2C\SH1051_PUMP\SH1051_BS84B08C_PUMP\USER_PROGRAM\isr.c"
 123  006D  370E        	clr [14].6
 123  006E  0700     E  	mov a,r2
 123  006F  008A        	mov status,a
 123  0070  0700     E  	mov a,r1
 123  0071  0004        	reti
 123  0072              _timer_ISR endp
 123  0072              
 123  0072              #line 123 "C:\Users\Huy Le\Documents\VSHOME\SONHA\IWH_SH_I2C\SH1051_PUMP\SH1051_BS84B08C_PUMP\USER_PROGRAM\isr.c"
 123  0072              #pragma debug scope 1 1
 123  0072              ___i2ctoc equ [35]
 123  0072              ___simc1 equ [37]
 123  0072              ___simd equ [38]
 123  0072              ___intc1 equ [15]
 123  0072              public _i2c_ISR
 123  0072              #pragma debug scope 4 1
 128  0072              #line 128 "C:\Users\Huy Le\Documents\VSHOME\SONHA\IWH_SH_I2C\SH1051_PUMP\SH1051_BS84B08C_PUMP\USER_PROGRAM\isr.c"
 128  0000              @i2c_ISR_code .section at 16 'code'
 128  0000  0080     E  	mov r1,a
 128  0001  070A        	mov a,status
 128  0002  0080     E  	mov r2,a
 128  0003  2800     R  	jmp _i2c_ISR
 128  0004              #pragma debug scope 1 1
 128  0004              @dummy16 endp
 128  0004              #pragma debug scope 5 1
 128  0000              _i2c_ISR .section 'code'
 128  0000              _i2c_ISR proc
 130  0000              #line 130 "C:\Users\Huy Le\Documents\VSHOME\SONHA\IWH_SH_I2C\SH1051_PUMP\SH1051_BS84B08C_PUMP\USER_PROGRAM\isr.c"
 130  0000  3B23        	snz [35].6
 130  0001  2800     R  	jmp _L16
 132  0002              #line 132 "C:\Users\Huy Le\Documents\VSHOME\SONHA\IWH_SH_I2C\SH1051_PUMP\SH1051_BS84B08C_PUMP\USER_PROGRAM\isr.c"
 132  0002  33A3        	set [35].7
 133  0003              #line 133 "C:\Users\Huy Le\Documents\VSHOME\SONHA\IWH_SH_I2C\SH1051_PUMP\SH1051_BS84B08C_PUMP\USER_PROGRAM\isr.c"
 133  0003  3723        	clr [35].6
 133  0004  2800     R  	jmp _L17
 133  0005              _L16:
 137  0005              #line 137 "C:\Users\Huy Le\Documents\VSHOME\SONHA\IWH_SH_I2C\SH1051_PUMP\SH1051_BS84B08C_PUMP\USER_PROGRAM\isr.c"
 137  0005  3B25        	snz [37].6
 137  0006  2800     R  	jmp _L18
 139  0007              #line 139 "C:\Users\Huy Le\Documents\VSHOME\SONHA\IWH_SH_I2C\SH1051_PUMP\SH1051_BS84B08C_PUMP\USER_PROGRAM\isr.c"
 139  0007  3925        	snz [37].2
 139  0008  2800     R  	jmp _L19
 142  0009              #line 142 "C:\Users\Huy Le\Documents\VSHOME\SONHA\IWH_SH_I2C\SH1051_PUMP\SH1051_BS84B08C_PUMP\USER_PROGRAM\isr.c"
 142  0009  3225        	set [37].4
 143  000A              #line 143 "C:\Users\Huy Le\Documents\VSHOME\SONHA\IWH_SH_I2C\SH1051_PUMP\SH1051_BS84B08C_PUMP\USER_PROGRAM\isr.c"
 143  000A  0700     E  	mov a,_s_tx_data[0]
 143  000B  00A6        	mov [38],a
 143  000C  2800     R  	jmp _L17
 143  000D              _L19:
 147  000D              #line 147 "C:\Users\Huy Le\Documents\VSHOME\SONHA\IWH_SH_I2C\SH1051_PUMP\SH1051_BS84B08C_PUMP\USER_PROGRAM\isr.c"
 147  000D  3625        	clr [37].4
 148  000E              #line 148 "C:\Users\Huy Le\Documents\VSHOME\SONHA\IWH_SH_I2C\SH1051_PUMP\SH1051_BS84B08C_PUMP\USER_PROGRAM\isr.c"
 148  000E  35A5        	clr [37].3
 149  000F              #line 149 "C:\Users\Huy Le\Documents\VSHOME\SONHA\IWH_SH_I2C\SH1051_PUMP\SH1051_BS84B08C_PUMP\USER_PROGRAM\isr.c"
"File: isr.c         Assembler  Version HGASM0202      Page 6

 149  000F  0726        	mov a,[38]
 149  0010  0080     R  	mov _dat1[0],a
 149  0011  2800     R  	jmp _L17
 149  0012              _L18:
 154  0012              #line 154 "C:\Users\Huy Le\Documents\VSHOME\SONHA\IWH_SH_I2C\SH1051_PUMP\SH1051_BS84B08C_PUMP\USER_PROGRAM\isr.c"
 154  0012  3A25        	snz [37].4
 154  0013  2800     R  	jmp _L20
 156  0014              #line 156 "C:\Users\Huy Le\Documents\VSHOME\SONHA\IWH_SH_I2C\SH1051_PUMP\SH1051_BS84B08C_PUMP\USER_PROGRAM\isr.c"
 156  0014  3825        	snz [37].0
 156  0015  2800     R  	jmp _L21
 158  0016              #line 158 "C:\Users\Huy Le\Documents\VSHOME\SONHA\IWH_SH_I2C\SH1051_PUMP\SH1051_BS84B08C_PUMP\USER_PROGRAM\isr.c"
 158  0016  3625        	clr [37].4
 159  0017              #line 159 "C:\Users\Huy Le\Documents\VSHOME\SONHA\IWH_SH_I2C\SH1051_PUMP\SH1051_BS84B08C_PUMP\USER_PROGRAM\isr.c"
 159  0017  35A5        	clr [37].3
 160  0018              #line 160 "C:\Users\Huy Le\Documents\VSHOME\SONHA\IWH_SH_I2C\SH1051_PUMP\SH1051_BS84B08C_PUMP\USER_PROGRAM\isr.c"
 160  0018  0726        	mov a,[38]
 160  0019  0080     R  	mov _dat2[0],a
 160  001A  2800     R  	jmp _L17
 160  001B              _L21:
 165  001B              #line 165 "C:\Users\Huy Le\Documents\VSHOME\SONHA\IWH_SH_I2C\SH1051_PUMP\SH1051_BS84B08C_PUMP\USER_PROGRAM\isr.c"
 165  001B  1080     R  	sz _u8_cnt_data_tx[0]
 165  001C  2800     R  	jmp _L22
 167  001D              #line 167 "C:\Users\Huy Le\Documents\VSHOME\SONHA\IWH_SH_I2C\SH1051_PUMP\SH1051_BS84B08C_PUMP\USER_PROGRAM\isr.c"
 167  001D  0700     E  	mov a,_s_tx_data[1]
 167  001E  00A6        	mov [38],a
 168  001F              #line 168 "C:\Users\Huy Le\Documents\VSHOME\SONHA\IWH_SH_I2C\SH1051_PUMP\SH1051_BS84B08C_PUMP\USER_PROGRAM\isr.c"
 168  001F  0F01        	mov a,1
 168  0020  0080     R  	mov _u8_cnt_data_tx[0],a
 168  0021  2800     R  	jmp _L17
 168  0022              _L22:
 170  0022              #line 170 "C:\Users\Huy Le\Documents\VSHOME\SONHA\IWH_SH_I2C\SH1051_PUMP\SH1051_BS84B08C_PUMP\USER_PROGRAM\isr.c"
 170  0022  1700     R  	sdza _u8_cnt_data_tx[0]
 170  0023  2800     R  	jmp _L17
 172  0024              #line 172 "C:\Users\Huy Le\Documents\VSHOME\SONHA\IWH_SH_I2C\SH1051_PUMP\SH1051_BS84B08C_PUMP\USER_PROGRAM\isr.c"
 172  0024  0700     E  	mov a,_s_tx_data[2]
 172  0025  00A6        	mov [38],a
 173  0026              #line 173 "C:\Users\Huy Le\Documents\VSHOME\SONHA\IWH_SH_I2C\SH1051_PUMP\SH1051_BS84B08C_PUMP\USER_PROGRAM\isr.c"
 173  0026  1F00     R  	clr _u8_cnt_data_tx[0]
 174  0027              #line 174 "C:\Users\Huy Le\Documents\VSHOME\SONHA\IWH_SH_I2C\SH1051_PUMP\SH1051_BS84B08C_PUMP\USER_PROGRAM\isr.c"
 174  0027  3000     R  	set _b_flag_i2c_transmit
 174  0028  2800     R  	jmp _L17
 174  0029              _L20:
 180  0029              #line 180 "C:\Users\Huy Le\Documents\VSHOME\SONHA\IWH_SH_I2C\SH1051_PUMP\SH1051_BS84B08C_PUMP\USER_PROGRAM\isr.c"
 180  0029  1080     R  	sz _u8_cnt_data_rx[0]
 180  002A  2800     R  	jmp _L23
 182  002B              #line 182 "C:\Users\Huy Le\Documents\VSHOME\SONHA\IWH_SH_I2C\SH1051_PUMP\SH1051_BS84B08C_PUMP\USER_PROGRAM\isr.c"
 182  002B  0726        	mov a,[38]
 182  002C  0080     E  	mov _s_rx_data[0],a
 183  002D              #line 183 "C:\Users\Huy Le\Documents\VSHOME\SONHA\IWH_SH_I2C\SH1051_PUMP\SH1051_BS84B08C_PUMP\USER_PROGRAM\isr.c"
 183  002D  0F01        	mov a,1
 183  002E  0080     R  	mov _u8_cnt_data_rx[0],a
 183  002F  2800     R  	jmp _L17
 183  0030              _L23:
 185  0030              #line 185 "C:\Users\Huy Le\Documents\VSHOME\SONHA\IWH_SH_I2C\SH1051_PUMP\SH1051_BS84B08C_PUMP\USER_PROGRAM\isr.c"
 185  0030  1700     R  	sdza _u8_cnt_data_rx[0]
 185  0031  2800     R  	jmp _L24
 187  0032              #line 187 "C:\Users\Huy Le\Documents\VSHOME\SONHA\IWH_SH_I2C\SH1051_PUMP\SH1051_BS84B08C_PUMP\USER_PROGRAM\isr.c"
 187  0032  0726        	mov a,[38]
 187  0033  0080     E  	mov _s_rx_data[1],a
 188  0034              #line 188 "C:\Users\Huy Le\Documents\VSHOME\SONHA\IWH_SH_I2C\SH1051_PUMP\SH1051_BS84B08C_PUMP\USER_PROGRAM\isr.c"
"File: isr.c         Assembler  Version HGASM0202      Page 7

 188  0034  0F02        	mov a,2
 188  0035  0080     R  	mov _u8_cnt_data_rx[0],a
 188  0036  2800     R  	jmp _L17
 188  0037              _L24:
 190  0037              #line 190 "C:\Users\Huy Le\Documents\VSHOME\SONHA\IWH_SH_I2C\SH1051_PUMP\SH1051_BS84B08C_PUMP\USER_PROGRAM\isr.c"
 190  0037  0700     R  	mov a,_u8_cnt_data_rx[0]
 190  0038  0A02        	sub a,2
 190  0039  390A        	snz z
 190  003A  2800     R  	jmp _L17
 192  003B              #line 192 "C:\Users\Huy Le\Documents\VSHOME\SONHA\IWH_SH_I2C\SH1051_PUMP\SH1051_BS84B08C_PUMP\USER_PROGRAM\isr.c"
 192  003B  0726        	mov a,[38]
 192  003C  0080     E  	mov _s_rx_data[2],a
 193  003D              #line 193 "C:\Users\Huy Le\Documents\VSHOME\SONHA\IWH_SH_I2C\SH1051_PUMP\SH1051_BS84B08C_PUMP\USER_PROGRAM\isr.c"
 193  003D  1F00     R  	clr _u8_cnt_data_rx[0]
 194  003E              #line 194 "C:\Users\Huy Le\Documents\VSHOME\SONHA\IWH_SH_I2C\SH1051_PUMP\SH1051_BS84B08C_PUMP\USER_PROGRAM\isr.c"
 194  003E  3000     R  	set _b_flag_i2c_receive
 194  003F              _L17:
 200  003F              #line 200 "C:\Users\Huy Le\Documents\VSHOME\SONHA\IWH_SH_I2C\SH1051_PUMP\SH1051_BS84B08C_PUMP\USER_PROGRAM\isr.c"
 200  003F  360F        	clr [15].4
 200  0040  0700     E  	mov a,r2
 200  0041  008A        	mov status,a
 200  0042  0700     E  	mov a,r1
 200  0043  0004        	reti
 200  0044              _i2c_ISR endp
 200  0044              
 200  0044              #line 200 "C:\Users\Huy Le\Documents\VSHOME\SONHA\IWH_SH_I2C\SH1051_PUMP\SH1051_BS84B08C_PUMP\USER_PROGRAM\isr.c"
 200  0044              #pragma debug scope 1 1
 200  0044              public _b_flag_i2c_transmit
 200  0000              @HCCINIT	.section 'data'
  33  0000              #line 33 "C:\Users\Huy Le\Documents\VSHOME\SONHA\IWH_SH_I2C\SH1051_PUMP\SH1051_BS84B08C_PUMP\USER_PROGRAM\isr.c"
  33  0000              @BITDATASEC .section 'data'
  33  0000  00          _b_flag_i2c_transmit	dbit 0
  33  0001              #pragma debug variable 2 1 _b_flag_i2c_transmit "b_flag_i2c_transmit"
  33  0001              public _b_flag_i2c_receive
  32  0001              #line 32 "C:\Users\Huy Le\Documents\VSHOME\SONHA\IWH_SH_I2C\SH1051_PUMP\SH1051_BS84B08C_PUMP\USER_PROGRAM\isr.c"
  32  0001              @BITDATASEC .section 'data'
  32  0000              _b_flag_i2c_receive	dbit 0
  32  0001              #pragma debug variable 2 1 _b_flag_i2c_receive "b_flag_i2c_receive"
  32  0001              public _u8_cnt_data_tx
  30  0001              #line 30 "C:\Users\Huy Le\Documents\VSHOME\SONHA\IWH_SH_I2C\SH1051_PUMP\SH1051_BS84B08C_PUMP\USER_PROGRAM\isr.c"
  30  0000              @HCCINIT .section 'data'
  30  0000              _u8_cnt_data_tx label byte
  30  0000              #pragma debug variable 8 1 _u8_cnt_data_tx "u8_cnt_data_tx"
  30  0000              	db 0
  30  0000              @ROMDATA_BASE .section inpage 'code'
  30  0000              	db 0
  30  0001              @HCCINIT .section 'data'
  30  0001              public _u8_cnt_data_rx
  29  0001              #line 29 "C:\Users\Huy Le\Documents\VSHOME\SONHA\IWH_SH_I2C\SH1051_PUMP\SH1051_BS84B08C_PUMP\USER_PROGRAM\isr.c"
  29  0001              @HCCINIT .section 'data'
  29  0001              _u8_cnt_data_rx label byte
  29  0001              #pragma debug variable 8 1 _u8_cnt_data_rx "u8_cnt_data_rx"
  29  0001              	db 0
  29  0001              @ROMDATA_BASE .section inpage 'code'
  29  0001              	db 0
  29  0002              @HCCINIT .section 'data'
  29  0002              public _dat2
  27  0002              #line 27 "C:\Users\Huy Le\Documents\VSHOME\SONHA\IWH_SH_I2C\SH1051_PUMP\SH1051_BS84B08C_PUMP\USER_PROGRAM\isr.c"
  27  0002              @HCCINIT .section 'data'
  27  0002              _dat2 label byte
"File: isr.c         Assembler  Version HGASM0202      Page 8

  27  0002              #pragma debug variable 8 1 _dat2 "dat2"
  27  0002              	db 0
  27  0001              @ROMDATA_BASE .section inpage 'code'
  27  0001              	db 0
  27  0003              @HCCINIT .section 'data'
  27  0003              public _dat1
  26  0003              #line 26 "C:\Users\Huy Le\Documents\VSHOME\SONHA\IWH_SH_I2C\SH1051_PUMP\SH1051_BS84B08C_PUMP\USER_PROGRAM\isr.c"
  26  0003              @HCCINIT .section 'data'
  26  0003              _dat1 label byte
  26  0003              #pragma debug variable 8 1 _dat1 "dat1"
  26  0003              	db 0
  26  0002              @ROMDATA_BASE .section inpage 'code'
  26  0002              	db 0
  26  0004              @HCCINIT .section 'data'
  26  0004              public _b_forever_buzzer
  21  0004              #line 21 "C:\Users\Huy Le\Documents\VSHOME\SONHA\IWH_SH_I2C\SH1051_PUMP\SH1051_BS84B08C_PUMP\USER_PROGRAM\isr.c"
  21  0001              @BITDATASEC .section 'data'
  21  0000              _b_forever_buzzer	dbit 0
  21  0001              #pragma debug variable 2 1 _b_forever_buzzer "b_forever_buzzer"
  21  0001              public _u16_timer_for_buzzer
  20  0001              #line 20 "C:\Users\Huy Le\Documents\VSHOME\SONHA\IWH_SH_I2C\SH1051_PUMP\SH1051_BS84B08C_PUMP\USER_PROGRAM\isr.c"
  20  0004              @HCCINIT .section 'data'
  20  0004              _u16_timer_for_buzzer label byte
  20  0004              #pragma debug variable 12 1 _u16_timer_for_buzzer "u16_timer_for_buzzer"
  20  0004              	db 0
  20  0002              @ROMDATA_BASE .section inpage 'code'
  20  0002              	db 0
  20  0005              @HCCINIT .section 'data'
  20  0005              	db 0
  20  0003              @ROMDATA_BASE .section inpage 'code'
  20  0003              	db 0
  20  0006              @HCCINIT .section 'data'
  18  0006              #line 18 "C:\Users\Huy Le\Documents\VSHOME\SONHA\IWH_SH_I2C\SH1051_PUMP\SH1051_BS84B08C_PUMP\USER_PROGRAM\isr.c"
  18  0006              public _u8_data1_i2c
  18  0000              @HCCINIT0 .section 'data'
  18  0000              _u8_data1_i2c	db 0
  18  0001              #pragma debug variable 8 1 _u8_data1_i2c "u8_data1_i2c"
  18  0001              
  18  0006              @HCCINIT .section 'data'
  17  0006              #line 17 "C:\Users\Huy Le\Documents\VSHOME\SONHA\IWH_SH_I2C\SH1051_PUMP\SH1051_BS84B08C_PUMP\USER_PROGRAM\isr.c"
  17  0006              public _u8_data_i2c
  17  0001              @HCCINIT0 .section 'data'
  17  0001              _u8_data_i2c	db 0
  17  0002              #pragma debug variable 8 1 _u8_data_i2c "u8_data_i2c"
  17  0002              
  17  0006              @HCCINIT .section 'data'
  16  0006              #line 16 "C:\Users\Huy Le\Documents\VSHOME\SONHA\IWH_SH_I2C\SH1051_PUMP\SH1051_BS84B08C_PUMP\USER_PROGRAM\isr.c"
  16  0006              public _u8_2s_timer_counter
  16  0002              @HCCINIT0 .section 'data'
  16  0002              _u8_2s_timer_counter	db 0
  16  0003              #pragma debug variable 8 1 _u8_2s_timer_counter "u8_2s_timer_counter"
  16  0003              
  16  0006              @HCCINIT .section 'data'
  16  0006              #line 16 "C:\Users\Huy Le\Documents\VSHOME\SONHA\IWH_SH_I2C\SH1051_PUMP\SH1051_BS84B08C_PUMP\USER_PROGRAM\isr.c"
  16  0006              public _u8_1s_timer_counter
  16  0003              @HCCINIT0 .section 'data'
  16  0003              _u8_1s_timer_counter	db 0
  16  0004              #pragma debug variable 8 1 _u8_1s_timer_counter "u8_1s_timer_counter"
  16  0004              
  16  0006              @HCCINIT .section 'data'
"File: isr.c         Assembler  Version HGASM0202      Page 9

  16  0006              #line 16 "C:\Users\Huy Le\Documents\VSHOME\SONHA\IWH_SH_I2C\SH1051_PUMP\SH1051_BS84B08C_PUMP\USER_PROGRAM\isr.c"
  16  0006              public _u8_500ms_timer_counter
  16  0004              @HCCINIT0 .section 'data'
  16  0004              _u8_500ms_timer_counter	db 0
  16  0005              #pragma debug variable 8 1 _u8_500ms_timer_counter "u8_500ms_timer_counter"
  16  0005              
  16  0006              @HCCINIT .section 'data'
  16  0006              #line 16 "C:\Users\Huy Le\Documents\VSHOME\SONHA\IWH_SH_I2C\SH1051_PUMP\SH1051_BS84B08C_PUMP\USER_PROGRAM\isr.c"
  16  0006              public _u8_100ms_timer_counter
  16  0005              @HCCINIT0 .section 'data'
  16  0005              _u8_100ms_timer_counter	db 0
  16  0006              #pragma debug variable 8 1 _u8_100ms_timer_counter "u8_100ms_timer_counter"
  16  0006              
  16  0006              @HCCINIT .section 'data'
  15  0006              #line 15 "C:\Users\Huy Le\Documents\VSHOME\SONHA\IWH_SH_I2C\SH1051_PUMP\SH1051_BS84B08C_PUMP\USER_PROGRAM\isr.c"
  15  0006              public _u8_10ms_timer_counter
  15  0006              @HCCINIT0 .section 'data'
  15  0006              _u8_10ms_timer_counter	db 0
  15  0007              #pragma debug variable 8 1 _u8_10ms_timer_counter "u8_10ms_timer_counter"
  15  0007              
  15  0006              @HCCINIT .section 'data'
  15  0006              #line 15 "C:\Users\Huy Le\Documents\VSHOME\SONHA\IWH_SH_I2C\SH1051_PUMP\SH1051_BS84B08C_PUMP\USER_PROGRAM\isr.c"
  15  0006              public _u8_2ms_timer_counter
  15  0007              @HCCINIT0 .section 'data'
  15  0007              _u8_2ms_timer_counter	db 0
  15  0008              #pragma debug variable 8 1 _u8_2ms_timer_counter "u8_2ms_timer_counter"
  15  0008              
  15  0006              @HCCINIT .section 'data'
  15  0006              #line 15 "C:\Users\Huy Le\Documents\VSHOME\SONHA\IWH_SH_I2C\SH1051_PUMP\SH1051_BS84B08C_PUMP\USER_PROGRAM\isr.c"
  15  0006              public _u8_1ms_timer_counter
  15  0008              @HCCINIT0 .section 'data'
  15  0008              _u8_1ms_timer_counter	db 0
  15  0009              #pragma debug variable 8 1 _u8_1ms_timer_counter "u8_1ms_timer_counter"
  15  0009              
  15  0006              @HCCINIT .section 'data'
  15  0006              #line 15 "C:\Users\Huy Le\Documents\VSHOME\SONHA\IWH_SH_I2C\SH1051_PUMP\SH1051_BS84B08C_PUMP\USER_PROGRAM\isr.c"
  15  0006              public _u8_timer_int_counter
  15  0009              @HCCINIT0 .section 'data'
  15  0009              _u8_timer_int_counter	db 0
  15  000A              #pragma debug variable 8 1 _u8_timer_int_counter "u8_timer_int_counter"
  15  000A              
  15  0006              @HCCINIT .section 'data'
  15  0006              public _b_flag500msInPowerOff
  13  0006              #line 13 "C:\Users\Huy Le\Documents\VSHOME\SONHA\IWH_SH_I2C\SH1051_PUMP\SH1051_BS84B08C_PUMP\USER_PROGRAM\isr.c"
  13  0001              @BITDATASEC .section 'data'
  13  0000              _b_flag500msInPowerOff	dbit 0
  13  0001              #pragma debug variable 2 1 _b_flag500msInPowerOff "b_flag500msInPowerOff"
  13  0001              public _b_flag500msInPowerOn
  12  0001              #line 12 "C:\Users\Huy Le\Documents\VSHOME\SONHA\IWH_SH_I2C\SH1051_PUMP\SH1051_BS84B08C_PUMP\USER_PROGRAM\isr.c"
  12  0001              @BITDATASEC .section 'data'
  12  0000              _b_flag500msInPowerOn	dbit 0
  12  0001              #pragma debug variable 2 1 _b_flag500msInPowerOn "b_flag500msInPowerOn"
  12  0001              public _b_flag100msInPowerOn
  12  0001              #line 12 "C:\Users\Huy Le\Documents\VSHOME\SONHA\IWH_SH_I2C\SH1051_PUMP\SH1051_BS84B08C_PUMP\USER_PROGRAM\isr.c"
  12  0001              @BITDATASEC .section 'data'
  12  0000              _b_flag100msInPowerOn	dbit 0
  12  0001              #pragma debug variable 2 1 _b_flag100msInPowerOn "b_flag100msInPowerOn"
  12  0001              public _b_flag10msInPowerOn
  12  0001              #line 12 "C:\Users\Huy Le\Documents\VSHOME\SONHA\IWH_SH_I2C\SH1051_PUMP\SH1051_BS84B08C_PUMP\USER_PROGRAM\isr.c"
  12  0001              @BITDATASEC .section 'data'
"File: isr.c         Assembler  Version HGASM0202      Page 10

  12  0000              _b_flag10msInPowerOn	dbit 0
  12  0001              #pragma debug variable 2 1 _b_flag10msInPowerOn "b_flag10msInPowerOn"
  12  0001              public _b_flag2msInPowerOn
  12  0001              #line 12 "C:\Users\Huy Le\Documents\VSHOME\SONHA\IWH_SH_I2C\SH1051_PUMP\SH1051_BS84B08C_PUMP\USER_PROGRAM\isr.c"
  12  0001              @BITDATASEC .section 'data'
  12  0000              _b_flag2msInPowerOn	dbit 0
  12  0001              #pragma debug variable 2 1 _b_flag2msInPowerOn "b_flag2msInPowerOn"
  12  0001              public _b_flag500msInPower
  11  0001              #line 11 "C:\Users\Huy Le\Documents\VSHOME\SONHA\IWH_SH_I2C\SH1051_PUMP\SH1051_BS84B08C_PUMP\USER_PROGRAM\isr.c"
  11  0001              @BITDATASEC .section 'data'
  11  0001  00          _b_flag500msInPower	dbit 0
  11  0002              #pragma debug variable 2 1 _b_flag500msInPower "b_flag500msInPower"
  11  0002              public _b_flag100msInPower
  11  0002              #line 11 "C:\Users\Huy Le\Documents\VSHOME\SONHA\IWH_SH_I2C\SH1051_PUMP\SH1051_BS84B08C_PUMP\USER_PROGRAM\isr.c"
  11  0002              @BITDATASEC .section 'data'
  11  0001              _b_flag100msInPower	dbit 0
  11  0002              #pragma debug variable 2 1 _b_flag100msInPower "b_flag100msInPower"
  11  0002              public _b_flag10msInPower
  11  0002              #line 11 "C:\Users\Huy Le\Documents\VSHOME\SONHA\IWH_SH_I2C\SH1051_PUMP\SH1051_BS84B08C_PUMP\USER_PROGRAM\isr.c"
  11  0002              @BITDATASEC .section 'data'
  11  0001              _b_flag10msInPower	dbit 0
  11  0002              #pragma debug variable 2 1 _b_flag10msInPower "b_flag10msInPower"
  11  0002              public _b_flag2msInPower
  11  0002              #line 11 "C:\Users\Huy Le\Documents\VSHOME\SONHA\IWH_SH_I2C\SH1051_PUMP\SH1051_BS84B08C_PUMP\USER_PROGRAM\isr.c"
  11  0002              @BITDATASEC .section 'data'
  11  0001              _b_flag2msInPower	dbit 0
  11  0002              #pragma debug variable 2 1 _b_flag2msInPower "b_flag2msInPower"
  11  0002              public _b_flag500msInTest
  10  0002              #line 10 "C:\Users\Huy Le\Documents\VSHOME\SONHA\IWH_SH_I2C\SH1051_PUMP\SH1051_BS84B08C_PUMP\USER_PROGRAM\isr.c"
  10  0002              @BITDATASEC .section 'data'
  10  0001              _b_flag500msInTest	dbit 0
  10  0002              #pragma debug variable 2 1 _b_flag500msInTest "b_flag500msInTest"
  10  0002              public _b_flag100msInTest
  10  0002              #line 10 "C:\Users\Huy Le\Documents\VSHOME\SONHA\IWH_SH_I2C\SH1051_PUMP\SH1051_BS84B08C_PUMP\USER_PROGRAM\isr.c"
  10  0002              @BITDATASEC .section 'data'
  10  0001              _b_flag100msInTest	dbit 0
  10  0002              #pragma debug variable 2 1 _b_flag100msInTest "b_flag100msInTest"
  10  0002              public _b_flag10msInTest
  10  0002              #line 10 "C:\Users\Huy Le\Documents\VSHOME\SONHA\IWH_SH_I2C\SH1051_PUMP\SH1051_BS84B08C_PUMP\USER_PROGRAM\isr.c"
  10  0002              @BITDATASEC .section 'data'
  10  0001              _b_flag10msInTest	dbit 0
  10  0002              #pragma debug variable 2 1 _b_flag10msInTest "b_flag10msInTest"
  10  0002              public _b_flag2msInTest
  10  0002              #line 10 "C:\Users\Huy Le\Documents\VSHOME\SONHA\IWH_SH_I2C\SH1051_PUMP\SH1051_BS84B08C_PUMP\USER_PROGRAM\isr.c"
  10  0002              @BITDATASEC .section 'data'
  10  0001              _b_flag2msInTest	dbit 0
  10  0002              #pragma debug variable 2 1 _b_flag2msInTest "b_flag2msInTest"
  10  0002              public _b_flag2sInStart
   9  0002              #line 9 "C:\Users\Huy Le\Documents\VSHOME\SONHA\IWH_SH_I2C\SH1051_PUMP\SH1051_BS84B08C_PUMP\USER_PROGRAM\isr.c"
   9  0002              @BITDATASEC .section 'data'
   9  0002  00          _b_flag2sInStart	dbit 0
   9  0003              #pragma debug variable 2 1 _b_flag2sInStart "b_flag2sInStart"
   9  0003              public _b_flag1sInStart
   9  0003              #line 9 "C:\Users\Huy Le\Documents\VSHOME\SONHA\IWH_SH_I2C\SH1051_PUMP\SH1051_BS84B08C_PUMP\USER_PROGRAM\isr.c"
   9  0003              @BITDATASEC .section 'data'
   9  0002              _b_flag1sInStart	dbit 0
   9  0003              #pragma debug variable 2 1 _b_flag1sInStart "b_flag1sInStart"
   9  0003              public _b_flag500msInStart
   9  0003              #line 9 "C:\Users\Huy Le\Documents\VSHOME\SONHA\IWH_SH_I2C\SH1051_PUMP\SH1051_BS84B08C_PUMP\USER_PROGRAM\isr.c"
   9  0003              @BITDATASEC .section 'data'
"File: isr.c         Assembler  Version HGASM0202      Page 11

   9  0002              _b_flag500msInStart	dbit 0
   9  0003              #pragma debug variable 2 1 _b_flag500msInStart "b_flag500msInStart"
   9  0003              public _b_flag100msInStart
   9  0003              #line 9 "C:\Users\Huy Le\Documents\VSHOME\SONHA\IWH_SH_I2C\SH1051_PUMP\SH1051_BS84B08C_PUMP\USER_PROGRAM\isr.c"
   9  0003              @BITDATASEC .section 'data'
   9  0002              _b_flag100msInStart	dbit 0
   9  0003              #pragma debug variable 2 1 _b_flag100msInStart "b_flag100msInStart"
   9  0003              public _b_flag10msInStart
   9  0003              #line 9 "C:\Users\Huy Le\Documents\VSHOME\SONHA\IWH_SH_I2C\SH1051_PUMP\SH1051_BS84B08C_PUMP\USER_PROGRAM\isr.c"
   9  0003              @BITDATASEC .section 'data'
   9  0002              _b_flag10msInStart	dbit 0
   9  0003              #pragma debug variable 2 1 _b_flag10msInStart "b_flag10msInStart"
   9  0003              public _b_flag2msInStart
   9  0003              #line 9 "C:\Users\Huy Le\Documents\VSHOME\SONHA\IWH_SH_I2C\SH1051_PUMP\SH1051_BS84B08C_PUMP\USER_PROGRAM\isr.c"
   9  0003              @BITDATASEC .section 'data'
   9  0002              _b_flag2msInStart	dbit 0
   9  0003              #pragma debug variable 2 1 _b_flag2msInStart "b_flag2msInStart"
   9  0003              public _b_flag_2s
   8  0003              #line 8 "C:\Users\Huy Le\Documents\VSHOME\SONHA\IWH_SH_I2C\SH1051_PUMP\SH1051_BS84B08C_PUMP\USER_PROGRAM\isr.c"
   8  0003              @BITDATASEC .section 'data'
   8  0002              _b_flag_2s	dbit 0
   8  0003              #pragma debug variable 2 1 _b_flag_2s "b_flag_2s"
   8  0003              public _b_flag_1s
   8  0003              #line 8 "C:\Users\Huy Le\Documents\VSHOME\SONHA\IWH_SH_I2C\SH1051_PUMP\SH1051_BS84B08C_PUMP\USER_PROGRAM\isr.c"
   8  0003              @BITDATASEC .section 'data'
   8  0002              _b_flag_1s	dbit 0
   8  0003              #pragma debug variable 2 1 _b_flag_1s "b_flag_1s"
   8  0003              public _b_flag_500ms
   8  0003              #line 8 "C:\Users\Huy Le\Documents\VSHOME\SONHA\IWH_SH_I2C\SH1051_PUMP\SH1051_BS84B08C_PUMP\USER_PROGRAM\isr.c"
   8  0003              @BITDATASEC .section 'data'
   8  0003  00          _b_flag_500ms	dbit 0
   8  0004              #pragma debug variable 2 1 _b_flag_500ms "b_flag_500ms"
   8  0004              public _b_flag_100ms
   8  0004              #line 8 "C:\Users\Huy Le\Documents\VSHOME\SONHA\IWH_SH_I2C\SH1051_PUMP\SH1051_BS84B08C_PUMP\USER_PROGRAM\isr.c"
   8  0004              @BITDATASEC .section 'data'
   8  0003              _b_flag_100ms	dbit 0
   8  0004              #pragma debug variable 2 1 _b_flag_100ms "b_flag_100ms"
   8  0004              public _b_flag_10ms
   7  0004              #line 7 "C:\Users\Huy Le\Documents\VSHOME\SONHA\IWH_SH_I2C\SH1051_PUMP\SH1051_BS84B08C_PUMP\USER_PROGRAM\isr.c"
   7  0004              @BITDATASEC .section 'data'
   7  0003              _b_flag_10ms	dbit 0
   7  0004              #pragma debug variable 2 1 _b_flag_10ms "b_flag_10ms"
   7  0004              public _b_flag_2ms
   7  0004              #line 7 "C:\Users\Huy Le\Documents\VSHOME\SONHA\IWH_SH_I2C\SH1051_PUMP\SH1051_BS84B08C_PUMP\USER_PROGRAM\isr.c"
   7  0004              @BITDATASEC .section 'data'
   7  0003              _b_flag_2ms	dbit 0
   7  0004              #pragma debug variable 2 1 _b_flag_2ms "b_flag_2ms"
   7  0004              public _b_flag_1ms
   7  0004              #line 7 "C:\Users\Huy Le\Documents\VSHOME\SONHA\IWH_SH_I2C\SH1051_PUMP\SH1051_BS84B08C_PUMP\USER_PROGRAM\isr.c"
   7  0004              @BITDATASEC .section 'data'
   7  0003              _b_flag_1ms	dbit 0
   7  0004              #pragma debug variable 2 1 _b_flag_1ms "b_flag_1ms"
   7  0004              public _b_flag_200us
   7  0004              #line 7 "C:\Users\Huy Le\Documents\VSHOME\SONHA\IWH_SH_I2C\SH1051_PUMP\SH1051_BS84B08C_PUMP\USER_PROGRAM\isr.c"
   7  0004              @BITDATASEC .section 'data'
   7  0003              _b_flag_200us	dbit 0
   7  0004              #pragma debug variable 2 1 _b_flag_200us "b_flag_200us"
   7  0004              #pragma debug struct_end
   7  0004              #pragma debug struct_end
   7  0004              #pragma debug union_end
"File: isr.c         Assembler  Version HGASM0202      Page 12

   7  0004              #pragma debug union_end
   7  0004              #pragma debug variable 43 1 ___intc0 "__intc0" 1
   7  0004              #pragma debug struct_end
   7  0004              #pragma debug struct_end
   7  0004              #pragma debug union_end
   7  0004              #pragma debug union_end
   7  0004              #pragma debug variable 45 1 ___intc1 "__intc1" 1
   7  0004              #pragma debug struct_end
   7  0004              #pragma debug struct_end
   7  0004              #pragma debug union_end
   7  0004              #pragma debug union_end
   7  0004              #pragma debug variable 47 1 ___pa "__pa" 1
   7  0004              #pragma debug struct_end
   7  0004              #pragma debug struct_end
   7  0004              #pragma debug union_end
   7  0004              #pragma debug union_end
   7  0004              #pragma debug variable 49 1 ___i2ctoc "__i2ctoc" 1
   7  0004              #pragma debug struct_end
   7  0004              #pragma debug struct_end
   7  0004              #pragma debug union_end
   7  0004              #pragma debug union_end
   7  0004              #pragma debug variable 51 1 ___simc1 "__simc1" 1
   7  0004              #pragma debug variable 8 1 ___simd "__simd" 1
   7  0004              
   7  0004              ; output external variables
   7  0004              extern _s_rx_data:byte
   7  0004              extern _s_tx_data:byte
   7  0004              extern r1:byte
   7  0004              extern r2:byte
   7  0004              
   7  0004              ; 
   7  0004              ; Generated by holtek-gcc v3.19, Tue Apr 16 15:16:59 2024
   7  0004              ; Rebuild 718
   7  0004              ; end of file


        0 Errors, 0