"File: TM16XXFonts.h  Assembler  Version HGASM0202      Page 1


   1  0000              ; Generated by holtek-gcc v3.19, Tue Apr 16 15:17:00 2024
   2  0000              ; 
   3  0000              ; Configuration:
   4  0000              ;       without long instruction
   5  0000              ;       Single ROM, Multi-RAM
   6  0000              ;       bits_per_rom_unit:16
   7  0000              ;       with mp1
   8  0000              ;       with tbhp, address(0x9)
   9  0000              ;          Use tabrd-const
  10  0000              ;       
  11  0000              ;       
  12  0000              ;       
  13  0000              ; use 'tabrdc' instead of 'tabrd'
  14  0000              ;       
  15  0000              
  16  0000              #pragma translator "holtek-gcc 4.6.4" "3.19" "build 20130711"
  17  0000              ; Rebuild 718
  18  0000              
  19  0000              ir equ [2]
  20  0000              mp equ [3]
  21  0000              sbp equ [1]
  22  0000              acc equ [5]
  23  0000              bp equ [4]
  24  0000              tblp equ [7]
  25  0000              tbhp equ [9]
  26  0000              status equ [10]
  27  0000              c equ [10].0
  28  0000              ac equ [10].1
  29  0000              z equ [10].2
  30  0000              ov equ [10].3
  31  0000              intc equ [11]
  32  0000              
  33  0000              extern ra:byte
  34  0000              extern rb:byte
  35  0000              extern rc:byte
  36  0000              extern rd:byte
  37  0000              extern re:byte
  38  0000              extern rf:byte
  39  0000              extern rg:byte
  40  0000              extern rh:byte
  41  0000              extern _Crom2Prom:near
  42  0000              extern _Crom2PromNext:near
  43  0000              
  44  0000              RAMBANK 0 @HCCINIT, @HCCINIT0
  45  0000              
  46  0000              RAMBANK 0 @BITDATASEC, @BITDATASEC1
  47  0000              @HCCINIT	.section 'data'
  48  0000              @HCCINIT0	.section 'data'
  49  0000              @BITDATASEC	 .section 'data'
  50  0000              @BITDATASEC1	 .section 'data'
  51  0000              
  52  0000              #pragma debug scope 1 1
  53  0000              	extern __DELAY3:near
  54  0000              	extern __DELAYX3:near
  55  0000              	extern __DELAYX6:near
  56  0000              	extern __DELAYY5:near
  57  0000              	extern __DELAYY3:near
  58  0000              	extern _builtin_holtek_delay_2:byte
  59  0000              public _clear
"File: TM1628.ASM    Assembler  Version HGASM0202      Page 2

  60  0000              #pragma debug scope 2 1

  50  0000              #line 50 "C:\Users\Huy Le\Documents\VSHOME\SONHA\IWH_SH_I2C\SH1051_PUMP\SH1051_BS84B08C_PUMP\TM1628\TM1628.c"
  50  0000              _clear .section 'code'
  50  0000              _clear proc
  51  0000              #line 51 "C:\Users\Huy Le\Documents\VSHOME\SONHA\IWH_SH_I2C\SH1051_PUMP\SH1051_BS84B08C_PUMP\TM1628\TM1628.c"
  51  0000  1F00     R  	clr _buffer[8]
  52  0001              #line 52 "C:\Users\Huy Le\Documents\VSHOME\SONHA\IWH_SH_I2C\SH1051_PUMP\SH1051_BS84B08C_PUMP\TM1628\TM1628.c"
  52  0001  1F00     R  	clr _buffer[9]
  53  0002              #line 53 "C:\Users\Huy Le\Documents\VSHOME\SONHA\IWH_SH_I2C\SH1051_PUMP\SH1051_BS84B08C_PUMP\TM1628\TM1628.c"
  53  0002  1F00     R  	clr _buffer[10]
  54  0003              #line 54 "C:\Users\Huy Le\Documents\VSHOME\SONHA\IWH_SH_I2C\SH1051_PUMP\SH1051_BS84B08C_PUMP\TM1628\TM1628.c"
  54  0003  1F00     R  	clr _buffer[12]
  55  0004              #line 55 "C:\Users\Huy Le\Documents\VSHOME\SONHA\IWH_SH_I2C\SH1051_PUMP\SH1051_BS84B08C_PUMP\TM1628\TM1628.c"
  55  0004  1F00     R  	clr _buffer[13]
  55  0005  0003        	ret
  55  0006              _clear endp
  55  0006              #line 55 "C:\Users\Huy Le\Documents\VSHOME\SONHA\IWH_SH_I2C\SH1051_PUMP\SH1051_BS84B08C_PUMP\TM1628\TM1628.c"
  55  0006              #pragma debug scope 1 1
  55  0006              public _min
  55  0006              #pragma debug scope 3 1
  62  0006              #line 62 "C:\Users\Huy Le\Documents\VSHOME\SONHA\IWH_SH_I2C\SH1051_PUMP\SH1051_BS84B08C_PUMP\TM1628\TM1628.c"
  62  0000              _min .section 'code'
  62  0000              _min proc
  62  0000              public _min_2
  62  0000  0002[           local _min_2 db 2 dup(?)	; 1,1
            00
            ]
  62  0000  0080     E  	mov rb,a
  62  0001              #pragma debug variable 8 3 _min_2+1 "a"
  62  0001              #pragma debug variable 8 3 _min_2+0 "b"
  63  0001              #line 63 "C:\Users\Huy Le\Documents\VSHOME\SONHA\IWH_SH_I2C\SH1051_PUMP\SH1051_BS84B08C_PUMP\TM1628\TM1628.c"
  63  0001  0700     R  	mov a,_min_2[0]
  63  0002  0080     E  	mov ra,a
  63  0003  0700     E  	mov a,rb
  63  0004  0200     E  	sub a,ra
  63  0005  3C0A        	sz c
  63  0006  2800     R  	jmp _L3
  63  0007              #line 63 "C:\Users\Huy Le\Documents\VSHOME\SONHA\IWH_SH_I2C\SH1051_PUMP\SH1051_BS84B08C_PUMP\TM1628\TM1628.c"
  63  0007  0700     E  	mov a,rb
  63  0008  0080     E  	mov ra,a
  63  0009              _L3:
  64  0009              #line 64 "C:\Users\Huy Le\Documents\VSHOME\SONHA\IWH_SH_I2C\SH1051_PUMP\SH1051_BS84B08C_PUMP\TM1628\TM1628.c"
  64  0009  0700     E  	mov a,ra
  64  000A  0003        	ret
  64  000B              _min endp
  64  000B              #line 64 "C:\Users\Huy Le\Documents\VSHOME\SONHA\IWH_SH_I2C\SH1051_PUMP\SH1051_BS84B08C_PUMP\TM1628\TM1628.c"
  64  000B              #pragma debug scope 1 1
  64  000B              public _max
  64  000B              #pragma debug scope 4 1
  66  000B              #line 66 "C:\Users\Huy Le\Documents\VSHOME\SONHA\IWH_SH_I2C\SH1051_PUMP\SH1051_BS84B08C_PUMP\TM1628\TM1628.c"
  66  0000              _max .section 'code'
  66  0000              _max proc
  66  0000              public _max_2
  66  0000  0002[           local _max_2 db 2 dup(?)	; 1,1
            00
            ]
  66  0000  0080     E  	mov rb,a
  66  0001              #pragma debug variable 8 4 _max_2+1 "a"
  66  0001              #pragma debug variable 8 4 _max_2+0 "b"
"File: TM1628.c      Assembler  Version HGASM0202      Page 3

  67  0001              #line 67 "C:\Users\Huy Le\Documents\VSHOME\SONHA\IWH_SH_I2C\SH1051_PUMP\SH1051_BS84B08C_PUMP\TM1628\TM1628.c"
  67  0001  0700     R  	mov a,_max_2[0]
  67  0002  0080     E  	mov ra,a
  67  0003  0700     E  	mov a,ra
  67  0004  0200     E  	sub a,rb
  67  0005  3C0A        	sz c
  67  0006  2800     R  	jmp _L6
  67  0007              #line 67 "C:\Users\Huy Le\Documents\VSHOME\SONHA\IWH_SH_I2C\SH1051_PUMP\SH1051_BS84B08C_PUMP\TM1628\TM1628.c"
  67  0007  0700     E  	mov a,rb
  67  0008  0080     E  	mov ra,a
  67  0009              _L6:
  68  0009              #line 68 "C:\Users\Huy Le\Documents\VSHOME\SONHA\IWH_SH_I2C\SH1051_PUMP\SH1051_BS84B08C_PUMP\TM1628\TM1628.c"
  68  0009  0700     E  	mov a,ra
  68  000A  0003        	ret
  68  000B              _max endp
  68  000B              #line 68 "C:\Users\Huy Le\Documents\VSHOME\SONHA\IWH_SH_I2C\SH1051_PUMP\SH1051_BS84B08C_PUMP\TM1628\TM1628.c"
  68  000B              #pragma debug scope 1 1
  68  000B              public _setSeg12
  68  000B              #pragma debug scope 5 1
  91  000B              #line 91 "C:\Users\Huy Le\Documents\VSHOME\SONHA\IWH_SH_I2C\SH1051_PUMP\SH1051_BS84B08C_PUMP\TM1628\TM1628.c"
  91  0000              _setSeg12 .section 'code'
  91  0000              _setSeg12 proc
  91  0000              public _setSeg12_2
  91  0000  0003[           local _setSeg12_2 db 3 dup(?)	; 1,2
            00
            ]
  91  0000  0080     E  	mov ra,a
  91  0001  0080     R  	mov _setSeg12_2[1],a
  91  0002              #pragma debug variable 8 5 _setSeg12_2+1 "num1"
  91  0002              #pragma debug variable 8 5 _setSeg12_2+0 "num2"
  92  0002              #line 92 "C:\Users\Huy Le\Documents\VSHOME\SONHA\IWH_SH_I2C\SH1051_PUMP\SH1051_BS84B08C_PUMP\TM1628\TM1628.c"
  92  0002  0F00     R  	mov a,low offset _NUMBER_FONT
  92  0003  0300     E  	add a,ra
  92  0004  0083        	mov mp,a
  92  0005  0F00     R  	mov a,high offset _NUMBER_FONT
  92  0006  1F01        	clr sbp
  92  0007  1381        	adcm a,sbp
  92  0008  2000     E  	call _Crom2Prom
  92  0009  0080     R  	mov _setSeg12_2[2],a
  92  000A  3800     R  	snz _setSeg12_2[2].0
  92  000B  2800     R  	jmp _L8
  92  000C              #line 92 "C:\Users\Huy Le\Documents\VSHOME\SONHA\IWH_SH_I2C\SH1051_PUMP\SH1051_BS84B08C_PUMP\TM1628\TM1628.c"
  92  000C  3000     R  	set _buffer[8].1
  92  000D  2800     R  	jmp _L9
  92  000E              _L8:
  92  000E  3400     R  	clr _buffer[8].1
  92  000F              _L9:
  93  000F              #line 93 "C:\Users\Huy Le\Documents\VSHOME\SONHA\IWH_SH_I2C\SH1051_PUMP\SH1051_BS84B08C_PUMP\TM1628\TM1628.c"
  93  000F  3800     R  	snz _setSeg12_2[2].1
  93  0010  2800     R  	jmp _L10
  93  0011  3000     R  	set _buffer[8].0
  93  0012  2800     R  	jmp _L11
  93  0013              _L10:
  93  0013  3400     R  	clr _buffer[8].0
  93  0014              _L11:
  94  0014              #line 94 "C:\Users\Huy Le\Documents\VSHOME\SONHA\IWH_SH_I2C\SH1051_PUMP\SH1051_BS84B08C_PUMP\TM1628\TM1628.c"
  94  0014  3800     R  	snz _setSeg12_2[2].2
  94  0015  2800     R  	jmp _L12
  94  0016  3000     R  	set _buffer[9].1
  94  0017  2800     R  	jmp _L13
"File: TM1628.c      Assembler  Version HGASM0202      Page 4

  94  0018              _L12:
  94  0018  3400     R  	clr _buffer[9].1
  94  0019              _L13:
  95  0019              #line 95 "C:\Users\Huy Le\Documents\VSHOME\SONHA\IWH_SH_I2C\SH1051_PUMP\SH1051_BS84B08C_PUMP\TM1628\TM1628.c"
  95  0019  3800     R  	snz _setSeg12_2[2].3
  95  001A  2800     R  	jmp _L14
  95  001B  3000     R  	set _buffer[8].7
  95  001C  2800     R  	jmp _L15
  95  001D              _L14:
  95  001D  3400     R  	clr _buffer[8].7
  95  001E              _L15:
  96  001E              #line 96 "C:\Users\Huy Le\Documents\VSHOME\SONHA\IWH_SH_I2C\SH1051_PUMP\SH1051_BS84B08C_PUMP\TM1628\TM1628.c"
  96  001E  3800     R  	snz _setSeg12_2[2].4
  96  001F  2800     R  	jmp _L16
  96  0020  3000     R  	set _buffer[9].0
  96  0021  2800     R  	jmp _L17
  96  0022              _L16:
  96  0022  3400     R  	clr _buffer[9].0
  96  0023              _L17:
  97  0023              #line 97 "C:\Users\Huy Le\Documents\VSHOME\SONHA\IWH_SH_I2C\SH1051_PUMP\SH1051_BS84B08C_PUMP\TM1628\TM1628.c"
  97  0023  3800     R  	snz _setSeg12_2[2].5
  97  0024  2800     R  	jmp _L18
  97  0025  3000     R  	set _buffer[8].2
  97  0026  2800     R  	jmp _L19
  97  0027              _L18:
  97  0027  3400     R  	clr _buffer[8].2
  97  0028              _L19:
  98  0028              #line 98 "C:\Users\Huy Le\Documents\VSHOME\SONHA\IWH_SH_I2C\SH1051_PUMP\SH1051_BS84B08C_PUMP\TM1628\TM1628.c"
  98  0028  3800     R  	snz _setSeg12_2[2].6
  98  0029  2800     R  	jmp _L20
  98  002A  3000     R  	set _buffer[8].3
  98  002B  2800     R  	jmp _L21
  98  002C              _L20:
  98  002C  3400     R  	clr _buffer[8].3
  98  002D              _L21:
 100  002D              #line 100 "C:\Users\Huy Le\Documents\VSHOME\SONHA\IWH_SH_I2C\SH1051_PUMP\SH1051_BS84B08C_PUMP\TM1628\TM1628.c"
 100  002D  0F00     R  	mov a,low offset _NUMBER_FONT
 100  002E  0300     R  	add a,_setSeg12_2[0]
 100  002F  0083        	mov mp,a
 100  0030  0F00     R  	mov a,high offset _NUMBER_FONT
 100  0031  1F01        	clr sbp
 100  0032  1381        	adcm a,sbp
 100  0033  2000     E  	call _Crom2Prom
 100  0034  0080     R  	mov _setSeg12_2[2],a
 100  0035  3800     R  	snz _setSeg12_2[2].0
 100  0036  2800     R  	jmp _L22
 100  0037  3000     R  	set _buffer[12].1
 100  0038  2800     R  	jmp _L23
 100  0039              _L22:
 100  0039  3400     R  	clr _buffer[12].1
 100  003A              _L23:
 101  003A              #line 101 "C:\Users\Huy Le\Documents\VSHOME\SONHA\IWH_SH_I2C\SH1051_PUMP\SH1051_BS84B08C_PUMP\TM1628\TM1628.c"
 101  003A  3800     R  	snz _setSeg12_2[2].1
 101  003B  2800     R  	jmp _L24
 101  003C  3000     R  	set _buffer[12].0
 101  003D  2800     R  	jmp _L25
 101  003E              _L24:
 101  003E  3400     R  	clr _buffer[12].0
 101  003F              _L25:
 102  003F              #line 102 "C:\Users\Huy Le\Documents\VSHOME\SONHA\IWH_SH_I2C\SH1051_PUMP\SH1051_BS84B08C_PUMP\TM1628\TM1628.c"
"File: TM1628.c      Assembler  Version HGASM0202      Page 5

 102  003F  3800     R  	snz _setSeg12_2[2].2
 102  0040  2800     R  	jmp _L26
 102  0041  3000     R  	set _buffer[13].1
 102  0042  2800     R  	jmp _L27
 102  0043              _L26:
 102  0043  3400     R  	clr _buffer[13].1
 102  0044              _L27:
 103  0044              #line 103 "C:\Users\Huy Le\Documents\VSHOME\SONHA\IWH_SH_I2C\SH1051_PUMP\SH1051_BS84B08C_PUMP\TM1628\TM1628.c"
 103  0044  3800     R  	snz _setSeg12_2[2].3
 103  0045  2800     R  	jmp _L28
 103  0046  3000     R  	set _buffer[12].7
 103  0047  2800     R  	jmp _L29
 103  0048              _L28:
 103  0048  3400     R  	clr _buffer[12].7
 103  0049              _L29:
 104  0049              #line 104 "C:\Users\Huy Le\Documents\VSHOME\SONHA\IWH_SH_I2C\SH1051_PUMP\SH1051_BS84B08C_PUMP\TM1628\TM1628.c"
 104  0049  3800     R  	snz _setSeg12_2[2].4
 104  004A  2800     R  	jmp _L30
 104  004B  3000     R  	set _buffer[13].0
 104  004C  2800     R  	jmp _L31
 104  004D              _L30:
 104  004D  3400     R  	clr _buffer[13].0
 104  004E              _L31:
 105  004E              #line 105 "C:\Users\Huy Le\Documents\VSHOME\SONHA\IWH_SH_I2C\SH1051_PUMP\SH1051_BS84B08C_PUMP\TM1628\TM1628.c"
 105  004E  3800     R  	snz _setSeg12_2[2].5
 105  004F  2800     R  	jmp _L32
 105  0050  3000     R  	set _buffer[12].2
 105  0051  2800     R  	jmp _L33
 105  0052              _L32:
 105  0052  3400     R  	clr _buffer[12].2
 105  0053              _L33:
 106  0053              #line 106 "C:\Users\Huy Le\Documents\VSHOME\SONHA\IWH_SH_I2C\SH1051_PUMP\SH1051_BS84B08C_PUMP\TM1628\TM1628.c"
 106  0053  3800     R  	snz _setSeg12_2[2].6
 106  0054  2800     R  	jmp _L34
 106  0055  3000     R  	set _buffer[12].3
 106  0056  2800     R  	jmp _L7
 106  0057              _L34:
 106  0057  3400     R  	clr _buffer[12].3
 106  0058              _L7:
 106  0058  0003        	ret
 106  0059              _setSeg12 endp
 106  0059              #line 106 "C:\Users\Huy Le\Documents\VSHOME\SONHA\IWH_SH_I2C\SH1051_PUMP\SH1051_BS84B08C_PUMP\TM1628\TM1628.c"
 106  0059              #pragma debug scope 1 1
 106  0059              public _setLedELCB
 106  0059              #pragma debug scope 6 1
 111  0059              #line 111 "C:\Users\Huy Le\Documents\VSHOME\SONHA\IWH_SH_I2C\SH1051_PUMP\SH1051_BS84B08C_PUMP\TM1628\TM1628.c"
 111  0000              _setLedELCB .section 'code'
 111  0000              _setLedELCB proc
 112  0000              #line 112 "C:\Users\Huy Le\Documents\VSHOME\SONHA\IWH_SH_I2C\SH1051_PUMP\SH1051_BS84B08C_PUMP\TM1628\TM1628.c"
 112  0000  3000     R  	set _buffer[10].0
 112  0001  0003        	ret
 112  0002              _setLedELCB endp
 112  0002              #line 112 "C:\Users\Huy Le\Documents\VSHOME\SONHA\IWH_SH_I2C\SH1051_PUMP\SH1051_BS84B08C_PUMP\TM1628\TM1628.c"
 112  0002              #pragma debug scope 1 1
 112  0002              public _setLedPump
 112  0002              #pragma debug scope 7 1
 117  0002              #line 117 "C:\Users\Huy Le\Documents\VSHOME\SONHA\IWH_SH_I2C\SH1051_PUMP\SH1051_BS84B08C_PUMP\TM1628\TM1628.c"
 117  0000              _setLedPump .section 'code'
 117  0000              _setLedPump proc
 118  0000              #line 118 "C:\Users\Huy Le\Documents\VSHOME\SONHA\IWH_SH_I2C\SH1051_PUMP\SH1051_BS84B08C_PUMP\TM1628\TM1628.c"
"File: TM1628.c      Assembler  Version HGASM0202      Page 6

 118  0000  3000     R  	set _buffer[10].1
 118  0001  0003        	ret
 118  0002              _setLedPump endp
 118  0002              #line 118 "C:\Users\Huy Le\Documents\VSHOME\SONHA\IWH_SH_I2C\SH1051_PUMP\SH1051_BS84B08C_PUMP\TM1628\TM1628.c"
 118  0002              #pragma debug scope 1 1
 118  0002              public _clearSeg12
 118  0002              #pragma debug scope 8 1
 121  0002              #line 121 "C:\Users\Huy Le\Documents\VSHOME\SONHA\IWH_SH_I2C\SH1051_PUMP\SH1051_BS84B08C_PUMP\TM1628\TM1628.c"
 121  0000              _clearSeg12 .section 'code'
 121  0000              _clearSeg12 proc
 122  0000              #line 122 "C:\Users\Huy Le\Documents\VSHOME\SONHA\IWH_SH_I2C\SH1051_PUMP\SH1051_BS84B08C_PUMP\TM1628\TM1628.c"
 122  0000  1F00     R  	clr _buffer[8]
 123  0001              #line 123 "C:\Users\Huy Le\Documents\VSHOME\SONHA\IWH_SH_I2C\SH1051_PUMP\SH1051_BS84B08C_PUMP\TM1628\TM1628.c"
 123  0001  1F00     R  	clr _buffer[9]
 124  0002              #line 124 "C:\Users\Huy Le\Documents\VSHOME\SONHA\IWH_SH_I2C\SH1051_PUMP\SH1051_BS84B08C_PUMP\TM1628\TM1628.c"
 124  0002  1F00     R  	clr _buffer[12]
 125  0003              #line 125 "C:\Users\Huy Le\Documents\VSHOME\SONHA\IWH_SH_I2C\SH1051_PUMP\SH1051_BS84B08C_PUMP\TM1628\TM1628.c"
 125  0003  1F00     R  	clr _buffer[13]
 125  0004  0003        	ret
 125  0005              _clearSeg12 endp
 125  0005              #line 125 "C:\Users\Huy Le\Documents\VSHOME\SONHA\IWH_SH_I2C\SH1051_PUMP\SH1051_BS84B08C_PUMP\TM1628\TM1628.c"
 125  0005              #pragma debug scope 1 1
 125  0005              public _clearLedELCB
 125  0005              #pragma debug scope 9 1
 129  0005              #line 129 "C:\Users\Huy Le\Documents\VSHOME\SONHA\IWH_SH_I2C\SH1051_PUMP\SH1051_BS84B08C_PUMP\TM1628\TM1628.c"
 129  0000              _clearLedELCB .section 'code'
 129  0000              _clearLedELCB proc
 130  0000              #line 130 "C:\Users\Huy Le\Documents\VSHOME\SONHA\IWH_SH_I2C\SH1051_PUMP\SH1051_BS84B08C_PUMP\TM1628\TM1628.c"
 130  0000  3400     R  	clr _buffer[10].0
 130  0001  0003        	ret
 130  0002              _clearLedELCB endp
 130  0002              #line 130 "C:\Users\Huy Le\Documents\VSHOME\SONHA\IWH_SH_I2C\SH1051_PUMP\SH1051_BS84B08C_PUMP\TM1628\TM1628.c"
 130  0002              #pragma debug scope 1 1
 130  0002              public _clearLedPump
 130  0002              #pragma debug scope 10 1
 133  0002              #line 133 "C:\Users\Huy Le\Documents\VSHOME\SONHA\IWH_SH_I2C\SH1051_PUMP\SH1051_BS84B08C_PUMP\TM1628\TM1628.c"
 133  0000              _clearLedPump .section 'code'
 133  0000              _clearLedPump proc
 134  0000              #line 134 "C:\Users\Huy Le\Documents\VSHOME\SONHA\IWH_SH_I2C\SH1051_PUMP\SH1051_BS84B08C_PUMP\TM1628\TM1628.c"
 134  0000  3400     R  	clr _buffer[10].1
 134  0001  0003        	ret
 134  0002              _clearLedPump endp
 134  0002              #line 134 "C:\Users\Huy Le\Documents\VSHOME\SONHA\IWH_SH_I2C\SH1051_PUMP\SH1051_BS84B08C_PUMP\TM1628\TM1628.c"
 134  0002              #pragma debug scope 1 1
 134  0002              ___pb equ [32]
 134  0002              public _send
 134  0002              #pragma debug scope 11 1
 138  0002              #line 138 "C:\Users\Huy Le\Documents\VSHOME\SONHA\IWH_SH_I2C\SH1051_PUMP\SH1051_BS84B08C_PUMP\TM1628\TM1628.c"
 138  0000              _send .section 'code'
 138  0000              _send proc
 138  0000  00              local _send_2 db 1 dup(?)	; 0,1
 138  0000  0080     R  	mov _send_2[0],a
 138  0001              #pragma debug variable 8 11 _send_2+0 "data"
 138  0001  0F08        	mov a,8
 138  0002  0080     E  	mov ra,a
 138  0003              _L43:
 142  0003              #line 142 "C:\Users\Huy Le\Documents\VSHOME\SONHA\IWH_SH_I2C\SH1051_PUMP\SH1051_BS84B08C_PUMP\TM1628\TM1628.c"
 142  0003  34A0        	clr [32].1
 143  0004              #line 143 "C:\Users\Huy Le\Documents\VSHOME\SONHA\IWH_SH_I2C\SH1051_PUMP\SH1051_BS84B08C_PUMP\TM1628\TM1628.c"
 143  0004              ;# 143 "C:\Users\Huy Le\Documents\VSHOME\SONHA\IWH_SH_I2C\SH1051_PUMP\SH1051_BS84B08C_PUMP\TM1628\TM1628.c" 1
"File: TM1628.c      Assembler  Version HGASM0202      Page 7

 143  0004  0000        	nop
 144  0005              #line 144 "C:\Users\Huy Le\Documents\VSHOME\SONHA\IWH_SH_I2C\SH1051_PUMP\SH1051_BS84B08C_PUMP\TM1628\TM1628.c"
 144  0005  0700     R  	mov a,_send_2[0]
 144  0006  0E01        	and a,1
 144  0007  0080     E  	mov rb,a
 144  0008  3420        	clr [32].0
 144  0009  0700     E  	mov a,rb
 144  000A  05A0        	orm a,[32]
 145  000B              #line 145 "C:\Users\Huy Le\Documents\VSHOME\SONHA\IWH_SH_I2C\SH1051_PUMP\SH1051_BS84B08C_PUMP\TM1628\TM1628.c"
 145  000B              ;# 145 "C:\Users\Huy Le\Documents\VSHOME\SONHA\IWH_SH_I2C\SH1051_PUMP\SH1051_BS84B08C_PUMP\TM1628\TM1628.c" 1
 145  000B  0000        	nop
 146  000C              #line 146 "C:\Users\Huy Le\Documents\VSHOME\SONHA\IWH_SH_I2C\SH1051_PUMP\SH1051_BS84B08C_PUMP\TM1628\TM1628.c"
 146  000C  340A        	clr c
 146  000D  1B80     R  	rrc _send_2[0]
 147  000E              #line 147 "C:\Users\Huy Le\Documents\VSHOME\SONHA\IWH_SH_I2C\SH1051_PUMP\SH1051_BS84B08C_PUMP\TM1628\TM1628.c"
 147  000E              ;# 147 "C:\Users\Huy Le\Documents\VSHOME\SONHA\IWH_SH_I2C\SH1051_PUMP\SH1051_BS84B08C_PUMP\TM1628\TM1628.c" 1
 147  000E  0000        	nop
 148  000F              #line 148 "C:\Users\Huy Le\Documents\VSHOME\SONHA\IWH_SH_I2C\SH1051_PUMP\SH1051_BS84B08C_PUMP\TM1628\TM1628.c"
 148  000F  30A0        	set [32].1
 149  0010              #line 149 "C:\Users\Huy Le\Documents\VSHOME\SONHA\IWH_SH_I2C\SH1051_PUMP\SH1051_BS84B08C_PUMP\TM1628\TM1628.c"
 149  0010              ;# 149 "C:\Users\Huy Le\Documents\VSHOME\SONHA\IWH_SH_I2C\SH1051_PUMP\SH1051_BS84B08C_PUMP\TM1628\TM1628.c" 1
 149  0010  0000        	nop
 149  0011  1780     E  	sdz ra
 149  0012  2800     R  	jmp _L43
 149  0013  0003        	ret
 149  0014              _send endp
 149  0014              #line 149 "C:\Users\Huy Le\Documents\VSHOME\SONHA\IWH_SH_I2C\SH1051_PUMP\SH1051_BS84B08C_PUMP\TM1628\TM1628.c"
 149  0014              #pragma debug scope 1 1
 149  0014              public _sendData
 149  0014              #pragma debug scope 12 1
  71  0014              #line 71 "C:\Users\Huy Le\Documents\VSHOME\SONHA\IWH_SH_I2C\SH1051_PUMP\SH1051_BS84B08C_PUMP\TM1628\TM1628.c"
  71  0000              _sendData .section 'code'
  71  0000              _sendData proc
  71  0000              public _sendData_2
  71  0000  0002[           local _sendData_2 db 2 dup(?)	; 1,1
            00
            ]
  71  0000  0080     R  	mov _sendData_2[1],a
  71  0001              #pragma debug variable 8 12 _sendData_2+1 "addr"
  71  0001              #pragma debug variable 8 12 _sendData_2+0 "data"
  74  0001              #line 74 "C:\Users\Huy Le\Documents\VSHOME\SONHA\IWH_SH_I2C\SH1051_PUMP\SH1051_BS84B08C_PUMP\TM1628\TM1628.c"
  74  0001  3520        	clr [32].2
  75  0002              #line 75 "C:\Users\Huy Le\Documents\VSHOME\SONHA\IWH_SH_I2C\SH1051_PUMP\SH1051_BS84B08C_PUMP\TM1628\TM1628.c"
  75  0002              ;# 75 "C:\Users\Huy Le\Documents\VSHOME\SONHA\IWH_SH_I2C\SH1051_PUMP\SH1051_BS84B08C_PUMP\TM1628\TM1628.c" 1
  75  0002  0000        	nop
  76  0003              #line 76 "C:\Users\Huy Le\Documents\VSHOME\SONHA\IWH_SH_I2C\SH1051_PUMP\SH1051_BS84B08C_PUMP\TM1628\TM1628.c"
  76  0003  0700     R  	mov a,_sendData_2[1]
  76  0004  0DC0        	or a,192
  76  0005  0080     E  	mov ra,a
  76  0006  0700     E  	mov a,ra
  76  0007  2000     R  	call _send
  77  0008              #line 77 "C:\Users\Huy Le\Documents\VSHOME\SONHA\IWH_SH_I2C\SH1051_PUMP\SH1051_BS84B08C_PUMP\TM1628\TM1628.c"
  77  0008  0700     R  	mov a,_sendData_2[0]
  77  0009  2000     R  	call _send
  78  000A              #line 78 "C:\Users\Huy Le\Documents\VSHOME\SONHA\IWH_SH_I2C\SH1051_PUMP\SH1051_BS84B08C_PUMP\TM1628\TM1628.c"
  78  000A              ;# 78 "C:\Users\Huy Le\Documents\VSHOME\SONHA\IWH_SH_I2C\SH1051_PUMP\SH1051_BS84B08C_PUMP\TM1628\TM1628.c" 1
  78  000A  0000        	nop
  79  000B              #line 79 "C:\Users\Huy Le\Documents\VSHOME\SONHA\IWH_SH_I2C\SH1051_PUMP\SH1051_BS84B08C_PUMP\TM1628\TM1628.c"
  79  000B  3120        	set [32].2
  79  000C  0003        	ret
"File: TM1628.c      Assembler  Version HGASM0202      Page 8

  79  000D              _sendData endp
  79  000D              #line 79 "C:\Users\Huy Le\Documents\VSHOME\SONHA\IWH_SH_I2C\SH1051_PUMP\SH1051_BS84B08C_PUMP\TM1628\TM1628.c"
  79  000D              #pragma debug scope 1 1
  79  000D              public _update
  79  000D              #pragma debug scope 13 1
  40  000D              #line 40 "C:\Users\Huy Le\Documents\VSHOME\SONHA\IWH_SH_I2C\SH1051_PUMP\SH1051_BS84B08C_PUMP\TM1628\TM1628.c"
  40  0000              _update .section 'code'
  40  0000              _update proc
  42  0000              #line 42 "C:\Users\Huy Le\Documents\VSHOME\SONHA\IWH_SH_I2C\SH1051_PUMP\SH1051_BS84B08C_PUMP\TM1628\TM1628.c"
  42  0000  0700     R  	mov a,_buffer[8]
  42  0001  0080     R  	mov _sendData_2[0],a
  42  0002  0F08        	mov a,8
  42  0003  2000     R  	call _sendData
  43  0004              #line 43 "C:\Users\Huy Le\Documents\VSHOME\SONHA\IWH_SH_I2C\SH1051_PUMP\SH1051_BS84B08C_PUMP\TM1628\TM1628.c"
  43  0004  0700     R  	mov a,_buffer[9]
  43  0005  0080     R  	mov _sendData_2[0],a
  43  0006  0F09        	mov a,9
  43  0007  2000     R  	call _sendData
  44  0008              #line 44 "C:\Users\Huy Le\Documents\VSHOME\SONHA\IWH_SH_I2C\SH1051_PUMP\SH1051_BS84B08C_PUMP\TM1628\TM1628.c"
  44  0008  0700     R  	mov a,_buffer[10]
  44  0009  0080     R  	mov _sendData_2[0],a
  44  000A  0F0A        	mov a,10
  44  000B  2000     R  	call _sendData
  45  000C              #line 45 "C:\Users\Huy Le\Documents\VSHOME\SONHA\IWH_SH_I2C\SH1051_PUMP\SH1051_BS84B08C_PUMP\TM1628\TM1628.c"
  45  000C  0700     R  	mov a,_buffer[12]
  45  000D  0080     R  	mov _sendData_2[0],a
  45  000E  0F0C        	mov a,12
  45  000F  2000     R  	call _sendData
  46  0010              #line 46 "C:\Users\Huy Le\Documents\VSHOME\SONHA\IWH_SH_I2C\SH1051_PUMP\SH1051_BS84B08C_PUMP\TM1628\TM1628.c"
  46  0010  0700     R  	mov a,_buffer[13]
  46  0011  0080     R  	mov _sendData_2[0],a
  46  0012  0F0D        	mov a,13
  46  0013  2000     R  	call _sendData
  46  0014  0003        	ret
  46  0015              _update endp
  46  0015              #line 46 "C:\Users\Huy Le\Documents\VSHOME\SONHA\IWH_SH_I2C\SH1051_PUMP\SH1051_BS84B08C_PUMP\TM1628\TM1628.c"
  46  0015              #pragma debug scope 1 1
  46  0015              public _sendCommand
  46  0015              #pragma debug scope 14 1
  83  0015              #line 83 "C:\Users\Huy Le\Documents\VSHOME\SONHA\IWH_SH_I2C\SH1051_PUMP\SH1051_BS84B08C_PUMP\TM1628\TM1628.c"
  83  0000              _sendCommand .section 'code'
  83  0000              _sendCommand proc
  83  0000  00              local _sendCommand_2 db 1 dup(?)	; 0,1
  83  0000  0080     R  	mov _sendCommand_2[0],a
  83  0001              #pragma debug variable 8 14 _sendCommand_2+0 "data"
  85  0001              #line 85 "C:\Users\Huy Le\Documents\VSHOME\SONHA\IWH_SH_I2C\SH1051_PUMP\SH1051_BS84B08C_PUMP\TM1628\TM1628.c"
  85  0001  3520        	clr [32].2
  86  0002              #line 86 "C:\Users\Huy Le\Documents\VSHOME\SONHA\IWH_SH_I2C\SH1051_PUMP\SH1051_BS84B08C_PUMP\TM1628\TM1628.c"
  86  0002  0700     R  	mov a,_sendCommand_2[0]
  86  0003  2000     R  	call _send
  87  0004              #line 87 "C:\Users\Huy Le\Documents\VSHOME\SONHA\IWH_SH_I2C\SH1051_PUMP\SH1051_BS84B08C_PUMP\TM1628\TM1628.c"
  87  0004  3120        	set [32].2
  87  0005  0003        	ret
  87  0006              _sendCommand endp
  87  0006              #line 87 "C:\Users\Huy Le\Documents\VSHOME\SONHA\IWH_SH_I2C\SH1051_PUMP\SH1051_BS84B08C_PUMP\TM1628\TM1628.c"
  87  0006              #pragma debug scope 1 1
  87  0006              public _begin
  87  0006              #pragma debug scope 15 1
  36  0006              #line 36 "C:\Users\Huy Le\Documents\VSHOME\SONHA\IWH_SH_I2C\SH1051_PUMP\SH1051_BS84B08C_PUMP\TM1628\TM1628.c"
  36  0000              _begin .section 'code'
"File: TM1628.c      Assembler  Version HGASM0202      Page 9

  36  0000              _begin proc
  36  0000              public _begin_2
  36  0000  0002[           local _begin_2 db 2 dup(?)	; 1,1
            00
            ]
  36  0000  0080     E  	mov ra,a
  36  0001              #pragma debug variable 8 15 _begin_2+1 "active"
  36  0001              #pragma debug variable 8 15 _begin_2+0 "intensity"
  37  0001              #line 37 "C:\Users\Huy Le\Documents\VSHOME\SONHA\IWH_SH_I2C\SH1051_PUMP\SH1051_BS84B08C_PUMP\TM1628\TM1628.c"
  37  0001  1080     E  	sz ra
  37  0002  2800     R  	jmp _LI1
  37  0003  2800     R  	jmp _L50
  37  0004              _LI1:
  37  0004              #line 37 "C:\Users\Huy Le\Documents\VSHOME\SONHA\IWH_SH_I2C\SH1051_PUMP\SH1051_BS84B08C_PUMP\TM1628\TM1628.c"
  37  0004  0F88        	mov a,136
  37  0005  0080     E  	mov rb,a
  37  0006  2800     R  	jmp _L48
  37  0007              _L50:
  37  0007  0F80        	mov a,128
  37  0008  0080     E  	mov rb,a
  37  0009              _L48:
  37  0009              #pragma debug scope 16 15
  37  0009              ;begin block, line: 37.-1
  37  0009              #pragma debug scope 17 16
  37  0009              ;begin block, line: 37.-1
  63  0009              #line 63 "C:\Users\Huy Le\Documents\VSHOME\SONHA\IWH_SH_I2C\SH1051_PUMP\SH1051_BS84B08C_PUMP\TM1628\TM1628.c"
  63  0009  0700     R  	mov a,_begin_2[0]
  63  000A  0080     E  	mov ra,a
  63  000B  0F07        	mov a,7
  63  000C  0200     E  	sub a,ra
  63  000D  3C0A        	sz c
  63  000E  2800     R  	jmp _L49
  63  000F  0F07        	mov a,7
  63  0010  0080     E  	mov ra,a
  63  0011              _L49:
  63  0011              #pragma debug scope 16 15
  63  0011              #pragma debug scope 15 1
  37  0011              #line 37 "C:\Users\Huy Le\Documents\VSHOME\SONHA\IWH_SH_I2C\SH1051_PUMP\SH1051_BS84B08C_PUMP\TM1628\TM1628.c"
  37  0011  0700     E  	mov a,rb
  37  0012  0580     E  	orm a,ra
  37  0013  0700     E  	mov a,ra
  37  0014  2000     R  	call _sendCommand
  37  0015  0003        	ret
  37  0016              _begin endp
  37  0016              #line 37 "C:\Users\Huy Le\Documents\VSHOME\SONHA\IWH_SH_I2C\SH1051_PUMP\SH1051_BS84B08C_PUMP\TM1628\TM1628.c"
  37  0016              #pragma debug scope 1 1
  37  0016              ___pbc equ [33]
  37  0016              public _TM1628_init
  37  0016              #pragma debug scope 18 1
   7  0016              #line 7 "C:\Users\Huy Le\Documents\VSHOME\SONHA\IWH_SH_I2C\SH1051_PUMP\SH1051_BS84B08C_PUMP\TM1628\TM1628.c"
   7  0000              _TM1628_init .section 'code'
   7  0000              _TM1628_init proc
   7  0000  0F0E        	mov a,14
   7  0001  0080     E  	mov ra,a
  11  0002              #line 11 "C:\Users\Huy Le\Documents\VSHOME\SONHA\IWH_SH_I2C\SH1051_PUMP\SH1051_BS84B08C_PUMP\TM1628\TM1628.c"
  11  0002  1F00     E  	clr rb
  11  0003              _L53:
  12  0003              #line 12 "C:\Users\Huy Le\Documents\VSHOME\SONHA\IWH_SH_I2C\SH1051_PUMP\SH1051_BS84B08C_PUMP\TM1628\TM1628.c"
  12  0003  0F00     R  	mov a,low offset _buffer
  12  0004  0300     E  	add a,rb
"File: TM1628.c      Assembler  Version HGASM0202      Page 10

  12  0005  0083        	mov mp,a
  12  0006  0F00     R  	mov a,high offset _buffer
  12  0007  1F01        	clr sbp
  12  0008  1381        	adcm a,sbp
  12  0009  0701        	mov a,sbp
  12  000A  0084        	mov bp,a
  12  000B  0F00        	mov a,0
  12  000C  0082        	mov ir,a
  11  000D              #line 11 "C:\Users\Huy Le\Documents\VSHOME\SONHA\IWH_SH_I2C\SH1051_PUMP\SH1051_BS84B08C_PUMP\TM1628\TM1628.c"
  11  000D  1480     E  	inc rb
  11  000E  1780     E  	sdz ra
  11  000F  2800     R  	jmp _L53
  17  0010              #line 17 "C:\Users\Huy Le\Documents\VSHOME\SONHA\IWH_SH_I2C\SH1051_PUMP\SH1051_BS84B08C_PUMP\TM1628\TM1628.c"
  17  0010  3421        	clr [33].0
  18  0011              #line 18 "C:\Users\Huy Le\Documents\VSHOME\SONHA\IWH_SH_I2C\SH1051_PUMP\SH1051_BS84B08C_PUMP\TM1628\TM1628.c"
  18  0011  34A1        	clr [33].1
  19  0012              #line 19 "C:\Users\Huy Le\Documents\VSHOME\SONHA\IWH_SH_I2C\SH1051_PUMP\SH1051_BS84B08C_PUMP\TM1628\TM1628.c"
  19  0012  3521        	clr [33].2
  22  0013              #line 22 "C:\Users\Huy Le\Documents\VSHOME\SONHA\IWH_SH_I2C\SH1051_PUMP\SH1051_BS84B08C_PUMP\TM1628\TM1628.c"
  22  0013  3120        	set [32].2
  23  0014              #line 23 "C:\Users\Huy Le\Documents\VSHOME\SONHA\IWH_SH_I2C\SH1051_PUMP\SH1051_BS84B08C_PUMP\TM1628\TM1628.c"
  23  0014  30A0        	set [32].1
  25  0015              #line 25 "C:\Users\Huy Le\Documents\VSHOME\SONHA\IWH_SH_I2C\SH1051_PUMP\SH1051_BS84B08C_PUMP\TM1628\TM1628.c"
  25  0015  0F8D        	mov a,141
  25  0016  2000     R  	call _sendCommand
  26  0017              #line 26 "C:\Users\Huy Le\Documents\VSHOME\SONHA\IWH_SH_I2C\SH1051_PUMP\SH1051_BS84B08C_PUMP\TM1628\TM1628.c"
  26  0017  0FC0        	mov a,192
  26  0018  2000     R  	call _sendCommand
  27  0019              #line 27 "C:\Users\Huy Le\Documents\VSHOME\SONHA\IWH_SH_I2C\SH1051_PUMP\SH1051_BS84B08C_PUMP\TM1628\TM1628.c"
  27  0019  0F44        	mov a,68
  27  001A  2000     R  	call _sendCommand
  29  001B              #line 29 "C:\Users\Huy Le\Documents\VSHOME\SONHA\IWH_SH_I2C\SH1051_PUMP\SH1051_BS84B08C_PUMP\TM1628\TM1628.c"
  29  001B  3520        	clr [32].2
  30  001C              #line 30 "C:\Users\Huy Le\Documents\VSHOME\SONHA\IWH_SH_I2C\SH1051_PUMP\SH1051_BS84B08C_PUMP\TM1628\TM1628.c"
  30  001C  0FC0        	mov a,192
  30  001D  2000     R  	call _send
  31  001E              #line 31 "C:\Users\Huy Le\Documents\VSHOME\SONHA\IWH_SH_I2C\SH1051_PUMP\SH1051_BS84B08C_PUMP\TM1628\TM1628.c"
  31  001E  2000     R  	call _clear
  32  001F              #line 32 "C:\Users\Huy Le\Documents\VSHOME\SONHA\IWH_SH_I2C\SH1051_PUMP\SH1051_BS84B08C_PUMP\TM1628\TM1628.c"
  32  001F  2000     R  	call _update
  33  0020              #line 33 "C:\Users\Huy Le\Documents\VSHOME\SONHA\IWH_SH_I2C\SH1051_PUMP\SH1051_BS84B08C_PUMP\TM1628\TM1628.c"
  33  0020  3120        	set [32].2
  33  0021  0003        	ret
  33  0022              _TM1628_init endp
  33  0022              #line 33 "C:\Users\Huy Le\Documents\VSHOME\SONHA\IWH_SH_I2C\SH1051_PUMP\SH1051_BS84B08C_PUMP\TM1628\TM1628.c"
  33  0022              #pragma debug scope 1 1
   4  0022              #line 4 "C:\Users\Huy Le\Documents\VSHOME\SONHA\IWH_SH_I2C\SH1051_PUMP\SH1051_BS84B08C_PUMP\TM1628\TM1628.c"
   4  0022              public _buffer
   4  0000              @HCCINIT0 .section 'data'
   4  0000  000E[       _buffer	db 14 dup(0)
            00
            ]
   4  000E              #pragma debug array 42 8 14 1
   4  000E              #pragma debug array 42 8 14 1
   4  000E              #pragma debug variable 42 1 _buffer "buffer"
   4  000E              
   4  0000              @HCCINIT .section 'data'
   4  0000              public _FONT_DEFAULT
   4  0000              @crom	.section 'crom'

"File: TM16XXFonts.h  Assembler  Version HGASM0202      Page 11

  75  0000              #line 75 "C:\Users\Huy Le\Documents\VSHOME\SONHA\IWH_SH_I2C\SH1051_PUMP\SH1051_BS84B08C_PUMP\TM1628\TM16XXFonts.h"
  75  0000              @crom	.section	'crom'
  75  0000              _FONT_DEFAULT:
  75  0000              #pragma debug array 43 8 95 1
  75  0000              #pragma debug array 43 8 95 1
  75  0000              #pragma debug variable 43 1 _FONT_DEFAULT "FONT_DEFAULT"
  75  0000              	db 0
  75  0001              	db -122
  75  0001              	db 34
  75  0002              	db 126
  75  0002              	db 109
  75  0003              	db 0
  75  0003              	db 0
  75  0004              	db 2
  75  0004              	db 48
  75  0005              	db 6
  75  0005              	db 99
  75  0006              	db 0
  75  0006              	db 4
  75  0007              	db 64
  75  0007              	db 8
  75  0008              	db 82
  75  0008              	db 63
  75  0009              	db 6
  75  0009              	db 91
  75  000A              	db 79
  75  000A              	db 102
  75  000B              	db 109
  75  000B              	db 125
  75  000C              	db 39
  75  000C              	db 127
  75  000D              	db 111
  75  000D              	db 9
  75  000E              	db 5
  75  000E              	db 0
  75  000F              	db 72
  75  000F              	db 0
  75  0010              	db 83
  75  0010              	db 95
  75  0011              	db 119
  75  0011              	db 127
  75  0012              	db 57
  75  0012              	db 63
  75  0013              	db 121
  75  0013              	db 113
  75  0014              	db 61
  75  0014              	db 118
  75  0015              	db 6
  75  0015              	db 31
  75  0016              	db 105
  75  0016              	db 56
  75  0017              	db 21
  75  0017              	db 55
  75  0018              	db 63
  75  0018              	db 115
  75  0019              	db 103
  75  0019              	db 49
  75  001A              	db 109
  75  001A              	db 120
  75  001B              	db 62
"File: TM16XXFonts.h  Assembler  Version HGASM0202      Page 12

  75  001B              	db 42
  75  001C              	db 29
  75  001C              	db 118
  75  001D              	db 110
  75  001D              	db 91
  75  001E              	db 57
  75  001E              	db 100
  75  001F              	db 15
  75  001F              	db 0
  75  0020              	db 8
  75  0020              	db 32
  75  0021              	db 95
  75  0021              	db 124
  75  0022              	db 88
  75  0022              	db 94
  75  0023              	db 123
  75  0023              	db 49
  75  0024              	db 111
  75  0024              	db 116
  75  0025              	db 4
  75  0025              	db 14
  75  0026              	db 117
  75  0026              	db 48
  75  0027              	db 85
  75  0027              	db 84
  75  0028              	db 92
  75  0028              	db 115
  75  0029              	db 103
  75  0029              	db 80
  75  002A              	db 109
  75  002A              	db 120
  75  002B              	db 28
  75  002B              	db 42
  75  002C              	db 29
  75  002C              	db 118
  75  002D              	db 110
  75  002D              	db 71
  75  002E              	db 70
  75  002E              	db 6
  75  002F              	db 112
  75  002F              	db 1
  75  0030              public _ERROR_E2
  69  0030              #line 69 "C:\Users\Huy Le\Documents\VSHOME\SONHA\IWH_SH_I2C\SH1051_PUMP\SH1051_BS84B08C_PUMP\TM1628\TM16XXFonts.h"
  69  0030              @crom	.section	'crom'
  69  0030              _ERROR_E2:
  69  0030              #pragma debug array 44 8 2 1
  69  0030              #pragma debug array 44 8 2 1
  69  0030              #pragma debug variable 44 1 _ERROR_E2 "ERROR_E2"
  69  0030              	db 121
  69  0030              	db 91
  69  0031              public _ERROR_DATA
  57  0031              #line 57 "C:\Users\Huy Le\Documents\VSHOME\SONHA\IWH_SH_I2C\SH1051_PUMP\SH1051_BS84B08C_PUMP\TM1628\TM16XXFonts.h"
  57  0031              @crom	.section	'crom'
  57  0031              _ERROR_DATA:
  57  0031              #pragma debug array 45 8 8 1
  57  0031              #pragma debug array 45 8 8 1
  57  0031              #pragma debug variable 45 1 _ERROR_DATA "ERROR_DATA"
  57  0031              	db 121
  57  0031              	db 80
  57  0032              	db 80
"File: TM16XXFonts.h  Assembler  Version HGASM0202      Page 13

  57  0032              	db 92
  57  0033              	db 80
  57  0033              	db 0
  57  0034              	db 0
  57  0034              	db 0
  57  0035              public _MINUS
  54  0035              #line 54 "C:\Users\Huy Le\Documents\VSHOME\SONHA\IWH_SH_I2C\SH1051_PUMP\SH1051_BS84B08C_PUMP\TM1628\TM16XXFonts.h"
  54  0035              @crom	.section	'crom'
  54  0035              _MINUS:
  54  0035              #pragma debug variable 8 1 _MINUS "MINUS"
  54  0035              	db 64
  54  0035              public _NUMBER_FONT
  34  0035              #line 34 "C:\Users\Huy Le\Documents\VSHOME\SONHA\IWH_SH_I2C\SH1051_PUMP\SH1051_BS84B08C_PUMP\TM1628\TM16XXFonts.h"
  34  0035              @crom	.section	'crom'
  34  0035              _NUMBER_FONT:
  34  0035              #pragma debug array 46 8 17 1
  34  0035              #pragma debug array 46 8 17 1
  34  0035              #pragma debug variable 46 1 _NUMBER_FONT "NUMBER_FONT"
  34  0035              	db 63
  34  0036              	db 6
  34  0036              	db 91
  34  0037              	db 79
  34  0037              	db 102
  34  0038              	db 109
  34  0038              	db 125
  34  0039              	db 7
  34  0039              	db 127
  34  003A              	db 111
  34  003A              	db 119
  34  003B              	db 124
  34  003B              	db 57
  34  003C              	db 94
  34  003C              	db 121
  34  003D              	db 113
  34  003D              	db 0
  34  003E              #pragma debug struct_end
  34  003E              #pragma debug struct_end
  34  003E              #pragma debug union_end
  34  003E              #pragma debug union_end
  34  003E              #pragma debug variable 48 1 ___pb "__pb" 1
  34  003E              #pragma debug struct_end
  34  003E              #pragma debug struct_end
  34  003E              #pragma debug union_end
  34  003E              #pragma debug union_end
  34  003E              #pragma debug variable 50 1 ___pbc "__pbc" 1
  34  003E              
  34  003E              ; 
  34  003E              ; Generated by holtek-gcc v3.19, Tue Apr 16 15:17:00 2024
  34  003E              ; Rebuild 718
  34  003E              ; end of file


        0 Errors, 0