"File: USER_PROGRAM.C  Assembler  Version HGASM0202      Page 1


   1  0000              ; Generated by holtek-gcc v3.19, Tue Apr 16 15:16:58 2024
   2  0000              ; 
   3  0000              ; Configuration:
   4  0000              ;       without long instruction
   5  0000              ;       Single ROM, Multi-RAM
   6  0000              ;       bits_per_rom_unit:16
   7  0000              ;       with mp1
   8  0000              ;       with tbhp, address(0x9)
   9  0000              ;          Use tabrd-const
  10  0000              ;       
  11  0000              ;       
  12  0000              ;       
  13  0000              ; use 'tabrdc' instead of 'tabrd'
  14  0000              ;       
  15  0000              
  16  0000              #pragma translator "holtek-gcc 4.6.4" "3.19" "build 20130711"
  17  0000              ; Rebuild 718
  18  0000              
  19  0000              ir equ [2]
  20  0000              mp equ [3]
  21  0000              sbp equ [1]
  22  0000              acc equ [5]
  23  0000              bp equ [4]
  24  0000              tblp equ [7]
  25  0000              tbhp equ [9]
  26  0000              status equ [10]
  27  0000              c equ [10].0
  28  0000              ac equ [10].1
  29  0000              z equ [10].2
  30  0000              ov equ [10].3
  31  0000              intc equ [11]
  32  0000              
  33  0000              extern ra:byte
  34  0000              extern rb:byte
  35  0000              extern rc:byte
  36  0000              extern rd:byte
  37  0000              extern re:byte
  38  0000              extern rf:byte
  39  0000              extern rg:byte
  40  0000              extern rh:byte
  41  0000              extern _Crom2Prom:near
  42  0000              extern _Crom2PromNext:near
  43  0000              
  44  0000              RAMBANK 0 @HCCINIT, @HCCINIT0
  45  0000              
  46  0000              RAMBANK 0 @BITDATASEC, @BITDATASEC1
  47  0000              @HCCINIT	.section 'data'
  48  0000              @HCCINIT0	.section 'data'
  49  0000              @BITDATASEC	 .section 'data'
  50  0000              @BITDATASEC1	 .section 'data'
  51  0000              
  52  0000              #pragma debug scope 1 1
  53  0000              	extern __DELAY3:near
  54  0000              	extern __DELAYX3:near
  55  0000              	extern __DELAYX6:near
  56  0000              	extern __DELAYY5:near
  57  0000              	extern __DELAYY3:near
  58  0000              	extern _builtin_holtek_delay_2:byte
  59  0000              public _USER_PROGRAM_HALT_PREPARE
"File: USER_PROGRAM.ASM  Assembler  Version HGASM0202      Page 2

  60  0000              #pragma debug scope 2 1

 293  0000              #line 293 "C:\Users\Huy Le\Documents\VSHOME\SONHA\IWH_SH_I2C\SH1051_PUMP\SH1051_BS84B08C_PUMP\USER_PROGRAM\USER_PROGRAM.C"
 293  0000              _USER_PROGRAM_HALT_PREPARE .section 'code'
 293  0000              _USER_PROGRAM_HALT_PREPARE proc
 293  0000  0003        	ret
 293  0001              _USER_PROGRAM_HALT_PREPARE endp
 293  0001              #line 293 "C:\Users\Huy Le\Documents\VSHOME\SONHA\IWH_SH_I2C\SH1051_PUMP\SH1051_BS84B08C_PUMP\USER_PROGRAM\USER_PROGRAM.C"
 293  0001              #pragma debug scope 1 1
 293  0001              public _USER_PROGRAM_HALT_WAKEUP
 293  0001              #pragma debug scope 3 1
 296  0001              #line 296 "C:\Users\Huy Le\Documents\VSHOME\SONHA\IWH_SH_I2C\SH1051_PUMP\SH1051_BS84B08C_PUMP\USER_PROGRAM\USER_PROGRAM.C"
 296  0000              _USER_PROGRAM_HALT_WAKEUP .section 'code'
 296  0000              _USER_PROGRAM_HALT_WAKEUP proc
 296  0000  0003        	ret
 296  0001              _USER_PROGRAM_HALT_WAKEUP endp
 296  0001              #line 296 "C:\Users\Huy Le\Documents\VSHOME\SONHA\IWH_SH_I2C\SH1051_PUMP\SH1051_BS84B08C_PUMP\USER_PROGRAM\USER_PROGRAM.C"
 296  0001              #pragma debug scope 1 1
 296  0001              public _USER_PROGRAM_RETURN_MAIN
 296  0001              #pragma debug scope 4 1
 299  0001              #line 299 "C:\Users\Huy Le\Documents\VSHOME\SONHA\IWH_SH_I2C\SH1051_PUMP\SH1051_BS84B08C_PUMP\USER_PROGRAM\USER_PROGRAM.C"
 299  0000              _USER_PROGRAM_RETURN_MAIN .section 'code'
 299  0000              _USER_PROGRAM_RETURN_MAIN proc
 299  0000  0003        	ret
 299  0001              _USER_PROGRAM_RETURN_MAIN endp
 299  0001              #line 299 "C:\Users\Huy Le\Documents\VSHOME\SONHA\IWH_SH_I2C\SH1051_PUMP\SH1051_BS84B08C_PUMP\USER_PROGRAM\USER_PROGRAM.C"
 299  0001              #pragma debug scope 1 1
 299  0001              public _CRC8
 299  0001              #pragma debug scope 5 1
 308  0001              #line 308 "C:\Users\Huy Le\Documents\VSHOME\SONHA\IWH_SH_I2C\SH1051_PUMP\SH1051_BS84B08C_PUMP\USER_PROGRAM\USER_PROGRAM.C"
 308  0000              _CRC8 .section 'code'
 308  0000              _CRC8 proc
 308  0000              public _CRC8_2
 308  0000  0003[           local _CRC8_2 db 3 dup(?)	; 3,0
            00
            ]
 308  0003              #pragma debug pointer 42 8 5
 308  0003              #pragma debug pointer 42 8 5
 308  0003              #pragma debug variable 42 5 _CRC8_2+0 "data"
 308  0003              #pragma debug variable 8 5 _CRC8_2+2 "length"
 314  0003              #line 314 "C:\Users\Huy Le\Documents\VSHOME\SONHA\IWH_SH_I2C\SH1051_PUMP\SH1051_BS84B08C_PUMP\USER_PROGRAM\USER_PROGRAM.C"
 314  0000  1F00     E  	clr rb
 309  0001              #line 309 "C:\Users\Huy Le\Documents\VSHOME\SONHA\IWH_SH_I2C\SH1051_PUMP\SH1051_BS84B08C_PUMP\USER_PROGRAM\USER_PROGRAM.C"
 309  0001  1F00     E  	clr ra
 309  0002              _L5:
 314  0002              #line 314 "C:\Users\Huy Le\Documents\VSHOME\SONHA\IWH_SH_I2C\SH1051_PUMP\SH1051_BS84B08C_PUMP\USER_PROGRAM\USER_PROGRAM.C"
 314  0002  0700     E  	mov a,rb
 314  0003  0200     R  	sub a,_CRC8_2[2]
 314  0004  3D0A        	sz z
 314  0005  2800     R  	jmp _L14
 315  0006              #line 315 "C:\Users\Huy Le\Documents\VSHOME\SONHA\IWH_SH_I2C\SH1051_PUMP\SH1051_BS84B08C_PUMP\USER_PROGRAM\USER_PROGRAM.C"
 315  0006  0700     R  	mov a,_CRC8_2[0]
 315  0007  0083        	mov mp,a
 315  0008  0700     R  	mov a,_CRC8_2[1]
 315  0009  0081        	mov sbp,a
 315  000A  2000     E  	call _Crom2Prom
 315  000B  0080     E  	mov rd,a
 315  000C  0F08        	mov a,8
 315  000D  0080     E  	mov rc,a
 315  000E              _L8:
"File: USER_PROGRAM.C  Assembler  Version HGASM0202      Page 3

 317  000E              #line 317 "C:\Users\Huy Le\Documents\VSHOME\SONHA\IWH_SH_I2C\SH1051_PUMP\SH1051_BS84B08C_PUMP\USER_PROGRAM\USER_PROGRAM.C"
 317  000E  0700     E  	mov a,rd
 317  000F  0400     E  	xor a,ra
 317  0010  0080     E  	mov re,a
 318  0011              #line 318 "C:\Users\Huy Le\Documents\VSHOME\SONHA\IWH_SH_I2C\SH1051_PUMP\SH1051_BS84B08C_PUMP\USER_PROGRAM\USER_PROGRAM.C"
 318  0011  340A        	clr c
 318  0012  1B80     E  	rrc ra
 319  0013              #line 319 "C:\Users\Huy Le\Documents\VSHOME\SONHA\IWH_SH_I2C\SH1051_PUMP\SH1051_BS84B08C_PUMP\USER_PROGRAM\USER_PROGRAM.C"
 319  0013  3800     E  	snz re.0
 319  0014  2800     R  	jmp _L6
 320  0015              #line 320 "C:\Users\Huy Le\Documents\VSHOME\SONHA\IWH_SH_I2C\SH1051_PUMP\SH1051_BS84B08C_PUMP\USER_PROGRAM\USER_PROGRAM.C"
 320  0015  0F8C        	mov a,140
 320  0016  0480     E  	xorm a,ra
 320  0017              _L6:
 321  0017              #line 321 "C:\Users\Huy Le\Documents\VSHOME\SONHA\IWH_SH_I2C\SH1051_PUMP\SH1051_BS84B08C_PUMP\USER_PROGRAM\USER_PROGRAM.C"
 321  0017  340A        	clr c
 321  0018  1B80     E  	rrc rd
 321  0019  1780     E  	sdz rc
 321  001A  2800     R  	jmp _L8
 323  001B              #line 323 "C:\Users\Huy Le\Documents\VSHOME\SONHA\IWH_SH_I2C\SH1051_PUMP\SH1051_BS84B08C_PUMP\USER_PROGRAM\USER_PROGRAM.C"
 323  001B  1480     R  	inc _CRC8_2[0]
 323  001C  3D0A        	sz z
 323  001D  1480     R  	inc _CRC8_2[1]
 314  001E              #line 314 "C:\Users\Huy Le\Documents\VSHOME\SONHA\IWH_SH_I2C\SH1051_PUMP\SH1051_BS84B08C_PUMP\USER_PROGRAM\USER_PROGRAM.C"
 314  001E  1480     E  	inc rb
 314  001F  2800     R  	jmp _L5
 314  0020              _L14:
 326  0020              #line 326 "C:\Users\Huy Le\Documents\VSHOME\SONHA\IWH_SH_I2C\SH1051_PUMP\SH1051_BS84B08C_PUMP\USER_PROGRAM\USER_PROGRAM.C"
 326  0020  0700     E  	mov a,ra
 326  0021  0003        	ret
 326  0022              _CRC8 endp
 326  0022              #line 326 "C:\Users\Huy Le\Documents\VSHOME\SONHA\IWH_SH_I2C\SH1051_PUMP\SH1051_BS84B08C_PUMP\USER_PROGRAM\USER_PROGRAM.C"
 326  0022              #pragma debug scope 1 1
 326  0022              ___pac equ [21]
 326  0022              ___pa equ [20]
 326  0022              public _USER_PROGRAM_INITIAL
 326  0022              #pragma debug scope 6 1
  77  0022              #line 77 "C:\Users\Huy Le\Documents\VSHOME\SONHA\IWH_SH_I2C\SH1051_PUMP\SH1051_BS84B08C_PUMP\USER_PROGRAM\USER_PROGRAM.C"
  77  0000              _USER_PROGRAM_INITIAL .section 'code'
  77  0000              _USER_PROGRAM_INITIAL proc
  78  0000              #line 78 "C:\Users\Huy Le\Documents\VSHOME\SONHA\IWH_SH_I2C\SH1051_PUMP\SH1051_BS84B08C_PUMP\USER_PROGRAM\USER_PROGRAM.C"
  78  0000              ;# 78 "C:\Users\Huy Le\Documents\VSHOME\SONHA\IWH_SH_I2C\SH1051_PUMP\SH1051_BS84B08C_PUMP\USER_PROGRAM\USER_PROGRAM.C" 1
  78  0000              	IF 10>263690
  78  0000              ;# 78 "C:\Users\Huy Le\Documents\VSHOME\SONHA\IWH_SH_I2C\SH1051_PUMP\SH1051_BS84B08C_PUMP\USER_PROGRAM\USER_PROGRAM.C" 1
  78  0000              	ERRMESSAGE 'the value 10of the argument exceeds the maxinum 263690'
  78  0000              	ENDIF
  78  0000              ;# 78 "C:\Users\Huy Le\Documents\VSHOME\SONHA\IWH_SH_I2C\SH1051_PUMP\SH1051_BS84B08C_PUMP\USER_PROGRAM\USER_PROGRAM.C" 1
  78  0000              	IF 10<0
  78  0000              ;# 78 "C:\Users\Huy Le\Documents\VSHOME\SONHA\IWH_SH_I2C\SH1051_PUMP\SH1051_BS84B08C_PUMP\USER_PROGRAM\USER_PROGRAM.C" 1
  78  0000              	ERRMESSAGE 'the value 10 of the argument exceeds the mininum 0'
  78  0000              	ENDIF
  78  0000              ;# 78 "C:\Users\Huy Le\Documents\VSHOME\SONHA\IWH_SH_I2C\SH1051_PUMP\SH1051_BS84B08C_PUMP\USER_PROGRAM\USER_PROGRAM.C" 1
  78  0000              	IF 10==0
  78  0000              ;# 78 "C:\Users\Huy Le\Documents\VSHOME\SONHA\IWH_SH_I2C\SH1051_PUMP\SH1051_BS84B08C_PUMP\USER_PROGRAM\USER_PROGRAM.C" 1
  78  0000              	JMP $
  78  0000              	ENDIF
  78  0000              ;# 78 "C:\Users\Huy Le\Documents\VSHOME\SONHA\IWH_SH_I2C\SH1051_PUMP\SH1051_BS84B08C_PUMP\USER_PROGRAM\USER_PROGRAM.C" 1
  78  0000              	IF 10==1
  78  0000              ;# 78 "C:\Users\Huy Le\Documents\VSHOME\SONHA\IWH_SH_I2C\SH1051_PUMP\SH1051_BS84B08C_PUMP\USER_PROGRAM\USER_PROGRAM.C" 1
  78  0000              	NOP
"File: USER_PROGRAM.C  Assembler  Version HGASM0202      Page 4

  78  0000              	ENDIF
  78  0000              ;# 78 "C:\Users\Huy Le\Documents\VSHOME\SONHA\IWH_SH_I2C\SH1051_PUMP\SH1051_BS84B08C_PUMP\USER_PROGRAM\USER_PROGRAM.C" 1
  78  0000              	IF 10==2
  78  0000              ;# 78 "C:\Users\Huy Le\Documents\VSHOME\SONHA\IWH_SH_I2C\SH1051_PUMP\SH1051_BS84B08C_PUMP\USER_PROGRAM\USER_PROGRAM.C" 1
  78  0000              	NOP
  78  0000              ;# 78 "C:\Users\Huy Le\Documents\VSHOME\SONHA\IWH_SH_I2C\SH1051_PUMP\SH1051_BS84B08C_PUMP\USER_PROGRAM\USER_PROGRAM.C" 1
  78  0000              	NOP
  78  0000              	ENDIF
  78  0000              ;# 78 "C:\Users\Huy Le\Documents\VSHOME\SONHA\IWH_SH_I2C\SH1051_PUMP\SH1051_BS84B08C_PUMP\USER_PROGRAM\USER_PROGRAM.C" 1
  78  0000              	IF 10==3
  78  0000              ;# 78 "C:\Users\Huy Le\Documents\VSHOME\SONHA\IWH_SH_I2C\SH1051_PUMP\SH1051_BS84B08C_PUMP\USER_PROGRAM\USER_PROGRAM.C" 1
  78  0000              	NOP
  78  0000              ;# 78 "C:\Users\Huy Le\Documents\VSHOME\SONHA\IWH_SH_I2C\SH1051_PUMP\SH1051_BS84B08C_PUMP\USER_PROGRAM\USER_PROGRAM.C" 1
  78  0000              	NOP
  78  0000              ;# 78 "C:\Users\Huy Le\Documents\VSHOME\SONHA\IWH_SH_I2C\SH1051_PUMP\SH1051_BS84B08C_PUMP\USER_PROGRAM\USER_PROGRAM.C" 1
  78  0000              	NOP
  78  0000              	ENDIF
  78  0000              ;# 78 "C:\Users\Huy Le\Documents\VSHOME\SONHA\IWH_SH_I2C\SH1051_PUMP\SH1051_BS84B08C_PUMP\USER_PROGRAM\USER_PROGRAM.C" 1
  78  0000              	IF (10<8) AND (10>3)
  78  0000              ;# 78 "C:\Users\Huy Le\Documents\VSHOME\SONHA\IWH_SH_I2C\SH1051_PUMP\SH1051_BS84B08C_PUMP\USER_PROGRAM\USER_PROGRAM.C" 1
  78  0000              	CALL __DELAY3 + 7 -10
  78  0000              	ENDIF
  78  0000              ;# 78 "C:\Users\Huy Le\Documents\VSHOME\SONHA\IWH_SH_I2C\SH1051_PUMP\SH1051_BS84B08C_PUMP\USER_PROGRAM\USER_PROGRAM.C" 1
  78  0000              	IF (10< 0404h) AND (10>7)
  78  0000              ;# 78 "C:\Users\Huy Le\Documents\VSHOME\SONHA\IWH_SH_I2C\SH1051_PUMP\SH1051_BS84B08C_PUMP\USER_PROGRAM\USER_PROGRAM.C" 1
  78  0000  0F01        	MOV A,10/4-1
  78  0001              ;# 78 "C:\Users\Huy Le\Documents\VSHOME\SONHA\IWH_SH_I2C\SH1051_PUMP\SH1051_BS84B08C_PUMP\USER_PROGRAM\USER_PROGRAM.C" 1
  78  0001  2000     E  	CALL __DELAYX3 + 3 -(10 MOD 4)
  78  0002              	ENDIF
  78  0002              ;# 78 "C:\Users\Huy Le\Documents\VSHOME\SONHA\IWH_SH_I2C\SH1051_PUMP\SH1051_BS84B08C_PUMP\USER_PROGRAM\USER_PROGRAM.C" 1
  78  0002              	IF (10< 0x40B) AND (10> 0403h)
  78  0002              ;# 78 "C:\Users\Huy Le\Documents\VSHOME\SONHA\IWH_SH_I2C\SH1051_PUMP\SH1051_BS84B08C_PUMP\USER_PROGRAM\USER_PROGRAM.C" 1
  78  0002              	MOV A,0 
  78  0002              ;# 78 "C:\Users\Huy Le\Documents\VSHOME\SONHA\IWH_SH_I2C\SH1051_PUMP\SH1051_BS84B08C_PUMP\USER_PROGRAM\USER_PROGRAM.C" 1
  78  0002              	CALL __DELAYX6 + 0x40a -10
  78  0002              	ENDIF
  78  0002              ;# 78 "C:\Users\Huy Le\Documents\VSHOME\SONHA\IWH_SH_I2C\SH1051_PUMP\SH1051_BS84B08C_PUMP\USER_PROGRAM\USER_PROGRAM.C" 1
  78  0002              	IF (10 >= 0x40b) AND ((((10-9)%0402h)/4+1)>256)
  78  0002              ;# 78 "C:\Users\Huy Le\Documents\VSHOME\SONHA\IWH_SH_I2C\SH1051_PUMP\SH1051_BS84B08C_PUMP\USER_PROGRAM\USER_PROGRAM.C" 1
  78  0002              	MOV A,(10-9)/0402h
  78  0002              ;# 78 "C:\Users\Huy Le\Documents\VSHOME\SONHA\IWH_SH_I2C\SH1051_PUMP\SH1051_BS84B08C_PUMP\USER_PROGRAM\USER_PROGRAM.C" 1
  78  0002              	MOV _builtin_holtek_delay_2,A
  78  0002              ;# 78 "C:\Users\Huy Le\Documents\VSHOME\SONHA\IWH_SH_I2C\SH1051_PUMP\SH1051_BS84B08C_PUMP\USER_PROGRAM\USER_PROGRAM.C" 1
  78  0002              	MOV A,0
  78  0002              ;# 78 "C:\Users\Huy Le\Documents\VSHOME\SONHA\IWH_SH_I2C\SH1051_PUMP\SH1051_BS84B08C_PUMP\USER_PROGRAM\USER_PROGRAM.C" 1
  78  0002              	CALL __DELAYY5 +5- (((10-9)%0402h)%6)
  78  0002              	ENDIF
  78  0002              ;# 78 "C:\Users\Huy Le\Documents\VSHOME\SONHA\IWH_SH_I2C\SH1051_PUMP\SH1051_BS84B08C_PUMP\USER_PROGRAM\USER_PROGRAM.C" 1
  78  0002              	IF (10 >= 0x40b) AND ((((10-9)%0402h)/4+1)<=256)
  78  0002              ;# 78 "C:\Users\Huy Le\Documents\VSHOME\SONHA\IWH_SH_I2C\SH1051_PUMP\SH1051_BS84B08C_PUMP\USER_PROGRAM\USER_PROGRAM.C" 1
  78  0002              	MOV A,(10-9)/0402h
  78  0002              ;# 78 "C:\Users\Huy Le\Documents\VSHOME\SONHA\IWH_SH_I2C\SH1051_PUMP\SH1051_BS84B08C_PUMP\USER_PROGRAM\USER_PROGRAM.C" 1
  78  0002              	MOV _builtin_holtek_delay_2,A
  78  0002              ;# 78 "C:\Users\Huy Le\Documents\VSHOME\SONHA\IWH_SH_I2C\SH1051_PUMP\SH1051_BS84B08C_PUMP\USER_PROGRAM\USER_PROGRAM.C" 1
  78  0002              	MOV A,((10-9)%0402h)/4+1
  78  0002              ;# 78 "C:\Users\Huy Le\Documents\VSHOME\SONHA\IWH_SH_I2C\SH1051_PUMP\SH1051_BS84B08C_PUMP\USER_PROGRAM\USER_PROGRAM.C" 1
  78  0002              	CALL __DELAYY3 +3-(((10-9)%0402h)%4)
  78  0002              	ENDIF
  79  0002              #line 79 "C:\Users\Huy Le\Documents\VSHOME\SONHA\IWH_SH_I2C\SH1051_PUMP\SH1051_BS84B08C_PUMP\USER_PROGRAM\USER_PROGRAM.C"
  79  0002  2000     E  	call _TIMER_Init
"File: USER_PROGRAM.C  Assembler  Version HGASM0202      Page 5

  80  0003              #line 80 "C:\Users\Huy Le\Documents\VSHOME\SONHA\IWH_SH_I2C\SH1051_PUMP\SH1051_BS84B08C_PUMP\USER_PROGRAM\USER_PROGRAM.C"
  80  0003  3595        	clr [21].3
  82  0004              #line 82 "C:\Users\Huy Le\Documents\VSHOME\SONHA\IWH_SH_I2C\SH1051_PUMP\SH1051_BS84B08C_PUMP\USER_PROGRAM\USER_PROGRAM.C"
  82  0004  1F00     R  	clr _g_pressBt[0]
  82  0005  1F00     R  	clr _g_pressBt[1]
  84  0006              #line 84 "C:\Users\Huy Le\Documents\VSHOME\SONHA\IWH_SH_I2C\SH1051_PUMP\SH1051_BS84B08C_PUMP\USER_PROGRAM\USER_PROGRAM.C"
  84  0006  1F00     R  	clr _machine_state[0]
  85  0007              #line 85 "C:\Users\Huy Le\Documents\VSHOME\SONHA\IWH_SH_I2C\SH1051_PUMP\SH1051_BS84B08C_PUMP\USER_PROGRAM\USER_PROGRAM.C"
  85  0007  0F32        	mov a,50
  85  0008  0080     R  	mov _old_rx_data[0],a
  86  0009              #line 86 "C:\Users\Huy Le\Documents\VSHOME\SONHA\IWH_SH_I2C\SH1051_PUMP\SH1051_BS84B08C_PUMP\USER_PROGRAM\USER_PROGRAM.C"
  86  0009  1F00     R  	clr _comm_timeout_cnt[0]
  87  000A              #line 87 "C:\Users\Huy Le\Documents\VSHOME\SONHA\IWH_SH_I2C\SH1051_PUMP\SH1051_BS84B08C_PUMP\USER_PROGRAM\USER_PROGRAM.C"
  87  000A  1F00     R  	clr _s_tx_data[0]
  88  000B              #line 88 "C:\Users\Huy Le\Documents\VSHOME\SONHA\IWH_SH_I2C\SH1051_PUMP\SH1051_BS84B08C_PUMP\USER_PROGRAM\USER_PROGRAM.C"
  88  000B  1F00     R  	clr _s_tx_data[1]
  89  000C              #line 89 "C:\Users\Huy Le\Documents\VSHOME\SONHA\IWH_SH_I2C\SH1051_PUMP\SH1051_BS84B08C_PUMP\USER_PROGRAM\USER_PROGRAM.C"
  89  000C  0F02        	mov a,2
  89  000D  0080     R  	mov _CRC8_2[2],a
  89  000E  0F00     R  	mov a,low offset _s_tx_data
  89  000F  0080     R  	mov _CRC8_2[0],a
  89  0010  0F00     R  	mov a,high offset _s_tx_data
  89  0011  0080     R  	mov _CRC8_2[1],a
  89  0012  2000     R  	call _CRC8
  89  0013  0080     E  	mov ra,a
  89  0014  0700     E  	mov a,ra
  89  0015  0080     R  	mov _s_tx_data[2],a
  91  0016              #line 91 "C:\Users\Huy Le\Documents\VSHOME\SONHA\IWH_SH_I2C\SH1051_PUMP\SH1051_BS84B08C_PUMP\USER_PROGRAM\USER_PROGRAM.C"
  91  0016  2000     E  	call _TM1628_init
  92  0017              #line 92 "C:\Users\Huy Le\Documents\VSHOME\SONHA\IWH_SH_I2C\SH1051_PUMP\SH1051_BS84B08C_PUMP\USER_PROGRAM\USER_PROGRAM.C"
  92  0017  2000     E  	call _I2C_init
  93  0018              #line 93 "C:\Users\Huy Le\Documents\VSHOME\SONHA\IWH_SH_I2C\SH1051_PUMP\SH1051_BS84B08C_PUMP\USER_PROGRAM\USER_PROGRAM.C"
  93  0018  2000     E  	call _IO_Init
  95  0019              #line 95 "C:\Users\Huy Le\Documents\VSHOME\SONHA\IWH_SH_I2C\SH1051_PUMP\SH1051_BS84B08C_PUMP\USER_PROGRAM\USER_PROGRAM.C"
  95  0019  3214        	set [20].4
  96  001A              #line 96 "C:\Users\Huy Le\Documents\VSHOME\SONHA\IWH_SH_I2C\SH1051_PUMP\SH1051_BS84B08C_PUMP\USER_PROGRAM\USER_PROGRAM.C"
  96  001A  2000     E  	call _setLedELCB
  97  001B              #line 97 "C:\Users\Huy Le\Documents\VSHOME\SONHA\IWH_SH_I2C\SH1051_PUMP\SH1051_BS84B08C_PUMP\USER_PROGRAM\USER_PROGRAM.C"
  97  001B  2000     E  	call _setLedPump
  98  001C              #line 98 "C:\Users\Huy Le\Documents\VSHOME\SONHA\IWH_SH_I2C\SH1051_PUMP\SH1051_BS84B08C_PUMP\USER_PROGRAM\USER_PROGRAM.C"
  98  001C  0F08        	mov a,8
  98  001D  0080     E  	mov _setSeg12_2[0],a
  98  001E  0F08        	mov a,8
  98  001F  2000     E  	call _setSeg12
  99  0020              #line 99 "C:\Users\Huy Le\Documents\VSHOME\SONHA\IWH_SH_I2C\SH1051_PUMP\SH1051_BS84B08C_PUMP\USER_PROGRAM\USER_PROGRAM.C"
  99  0020  2000     E  	call _update
 101  0021              #line 101 "C:\Users\Huy Le\Documents\VSHOME\SONHA\IWH_SH_I2C\SH1051_PUMP\SH1051_BS84B08C_PUMP\USER_PROGRAM\USER_PROGRAM.C"
 101  0021  1F00     R  	clr _deviceMode[0]
 101  0022  1F00     R  	clr _deviceMode[1]
 103  0023              #line 103 "C:\Users\Huy Le\Documents\VSHOME\SONHA\IWH_SH_I2C\SH1051_PUMP\SH1051_BS84B08C_PUMP\USER_PROGRAM\USER_PROGRAM.C"
 103  0023  3400     R  	clr _b_tonggle_E2_in_mode_test
 104  0024              #line 104 "C:\Users\Huy Le\Documents\VSHOME\SONHA\IWH_SH_I2C\SH1051_PUMP\SH1051_BS84B08C_PUMP\USER_PROGRAM\USER_PROGRAM.C"
 104  0024  3400     R  	clr _b_tonggle_E3_in_mode_reset
 105  0025              #line 105 "C:\Users\Huy Le\Documents\VSHOME\SONHA\IWH_SH_I2C\SH1051_PUMP\SH1051_BS84B08C_PUMP\USER_PROGRAM\USER_PROGRAM.C"
 105  0025  3400     R  	clr _b_flag_button
 106  0026              #line 106 "C:\Users\Huy Le\Documents\VSHOME\SONHA\IWH_SH_I2C\SH1051_PUMP\SH1051_BS84B08C_PUMP\USER_PROGRAM\USER_PROGRAM.C"
 106  0026  3400     R  	clr _b_flag_pump
 108  0027              #line 108 "C:\Users\Huy Le\Documents\VSHOME\SONHA\IWH_SH_I2C\SH1051_PUMP\SH1051_BS84B08C_PUMP\USER_PROGRAM\USER_PROGRAM.C"
 108  0027  0F28        	mov a,40
 108  0028  0080     R  	mov _temp_set[0],a
"File: USER_PROGRAM.C  Assembler  Version HGASM0202      Page 6

 109  0029              #line 109 "C:\Users\Huy Le\Documents\VSHOME\SONHA\IWH_SH_I2C\SH1051_PUMP\SH1051_BS84B08C_PUMP\USER_PROGRAM\USER_PROGRAM.C"
 109  0029  0FF4        	mov a,-12
 109  002A  0080     E  	mov _set_buzzer_on_2[0],a
 109  002B  0F01        	mov a,1
 109  002C  0080     E  	mov _set_buzzer_on_2[1],a
 109  002D  2000     E  	call _set_buzzer_on
 109  002E  0003        	ret
 109  002F              _USER_PROGRAM_INITIAL endp
 109  002F              #line 109 "C:\Users\Huy Le\Documents\VSHOME\SONHA\IWH_SH_I2C\SH1051_PUMP\SH1051_BS84B08C_PUMP\USER_PROGRAM\USER_PROGRAM.C"
 109  002F              #pragma debug scope 1 1
 109  002F              public _mode_start_program
 109  002F              #pragma debug scope 7 1
 331  002F              #line 331 "C:\Users\Huy Le\Documents\VSHOME\SONHA\IWH_SH_I2C\SH1051_PUMP\SH1051_BS84B08C_PUMP\USER_PROGRAM\USER_PROGRAM.C"
 331  0000              _mode_start_program .section 'code'
 331  0000              _mode_start_program proc
 332  0000              #line 332 "C:\Users\Huy Le\Documents\VSHOME\SONHA\IWH_SH_I2C\SH1051_PUMP\SH1051_BS84B08C_PUMP\USER_PROGRAM\USER_PROGRAM.C"
 332  0000  3800     E  	snz _b_flag2msInStart
 332  0001  2800     R  	jmp _L17
 334  0002              #line 334 "C:\Users\Huy Le\Documents\VSHOME\SONHA\IWH_SH_I2C\SH1051_PUMP\SH1051_BS84B08C_PUMP\USER_PROGRAM\USER_PROGRAM.C"
 334  0002  3400     E  	clr _b_flag2msInStart
 334  0003              _L17:
 338  0003              #line 338 "C:\Users\Huy Le\Documents\VSHOME\SONHA\IWH_SH_I2C\SH1051_PUMP\SH1051_BS84B08C_PUMP\USER_PROGRAM\USER_PROGRAM.C"
 338  0003  3800     E  	snz _b_flag10msInStart
 338  0004  2800     R  	jmp _L18
 340  0005              #line 340 "C:\Users\Huy Le\Documents\VSHOME\SONHA\IWH_SH_I2C\SH1051_PUMP\SH1051_BS84B08C_PUMP\USER_PROGRAM\USER_PROGRAM.C"
 340  0005  3400     E  	clr _b_flag10msInStart
 340  0006              _L18:
 344  0006              #line 344 "C:\Users\Huy Le\Documents\VSHOME\SONHA\IWH_SH_I2C\SH1051_PUMP\SH1051_BS84B08C_PUMP\USER_PROGRAM\USER_PROGRAM.C"
 344  0006  3800     E  	snz _b_flag100msInStart
 344  0007  2800     R  	jmp _L19
 346  0008              #line 346 "C:\Users\Huy Le\Documents\VSHOME\SONHA\IWH_SH_I2C\SH1051_PUMP\SH1051_BS84B08C_PUMP\USER_PROGRAM\USER_PROGRAM.C"
 346  0008  3400     E  	clr _b_flag100msInStart
 346  0009              _L19:
 349  0009              #line 349 "C:\Users\Huy Le\Documents\VSHOME\SONHA\IWH_SH_I2C\SH1051_PUMP\SH1051_BS84B08C_PUMP\USER_PROGRAM\USER_PROGRAM.C"
 349  0009  3800     E  	snz _b_flag500msInStart
 349  000A  2800     R  	jmp _L20
 351  000B              #line 351 "C:\Users\Huy Le\Documents\VSHOME\SONHA\IWH_SH_I2C\SH1051_PUMP\SH1051_BS84B08C_PUMP\USER_PROGRAM\USER_PROGRAM.C"
 351  000B  3400     E  	clr _b_flag500msInStart
 351  000C              _L20:
 356  000C              #line 356 "C:\Users\Huy Le\Documents\VSHOME\SONHA\IWH_SH_I2C\SH1051_PUMP\SH1051_BS84B08C_PUMP\USER_PROGRAM\USER_PROGRAM.C"
 356  000C  3800     E  	snz _b_flag2sInStart
 356  000D  2800     R  	jmp _L16
 358  000E              #line 358 "C:\Users\Huy Le\Documents\VSHOME\SONHA\IWH_SH_I2C\SH1051_PUMP\SH1051_BS84B08C_PUMP\USER_PROGRAM\USER_PROGRAM.C"
 358  000E  3400     E  	clr _b_flag2sInStart
 360  000F              #line 360 "C:\Users\Huy Le\Documents\VSHOME\SONHA\IWH_SH_I2C\SH1051_PUMP\SH1051_BS84B08C_PUMP\USER_PROGRAM\USER_PROGRAM.C"
 360  000F  3614        	clr [20].4
 361  0010              #line 361 "C:\Users\Huy Le\Documents\VSHOME\SONHA\IWH_SH_I2C\SH1051_PUMP\SH1051_BS84B08C_PUMP\USER_PROGRAM\USER_PROGRAM.C"
 361  0010  2000     E  	call _clear
 362  0011              #line 362 "C:\Users\Huy Le\Documents\VSHOME\SONHA\IWH_SH_I2C\SH1051_PUMP\SH1051_BS84B08C_PUMP\USER_PROGRAM\USER_PROGRAM.C"
 362  0011  2000     E  	call _update
 363  0012              #line 363 "C:\Users\Huy Le\Documents\VSHOME\SONHA\IWH_SH_I2C\SH1051_PUMP\SH1051_BS84B08C_PUMP\USER_PROGRAM\USER_PROGRAM.C"
 363  0012  0F02        	mov a,2
 363  0013  0080     R  	mov _deviceMode[0],a
 363  0014  1F00     R  	clr _deviceMode[1]
 363  0015              _L16:
 363  0015  0003        	ret
 363  0016              _mode_start_program endp
 363  0016              #line 363 "C:\Users\Huy Le\Documents\VSHOME\SONHA\IWH_SH_I2C\SH1051_PUMP\SH1051_BS84B08C_PUMP\USER_PROGRAM\USER_PROGRAM.C"
 363  0016              #pragma debug scope 1 1
 363  0016              public _mode_test_program
"File: USER_PROGRAM.C  Assembler  Version HGASM0202      Page 7

 363  0016              #pragma debug scope 8 1
 369  0016              #line 369 "C:\Users\Huy Le\Documents\VSHOME\SONHA\IWH_SH_I2C\SH1051_PUMP\SH1051_BS84B08C_PUMP\USER_PROGRAM\USER_PROGRAM.C"
 369  0000              _mode_test_program .section 'code'
 369  0000              _mode_test_program proc
 370  0000              #line 370 "C:\Users\Huy Le\Documents\VSHOME\SONHA\IWH_SH_I2C\SH1051_PUMP\SH1051_BS84B08C_PUMP\USER_PROGRAM\USER_PROGRAM.C"
 370  0000  3800     E  	snz _b_flag2msInTest
 370  0001  2800     R  	jmp _L23
 372  0002              #line 372 "C:\Users\Huy Le\Documents\VSHOME\SONHA\IWH_SH_I2C\SH1051_PUMP\SH1051_BS84B08C_PUMP\USER_PROGRAM\USER_PROGRAM.C"
 372  0002  3400     E  	clr _b_flag2msInTest
 372  0003              _L23:
 376  0003              #line 376 "C:\Users\Huy Le\Documents\VSHOME\SONHA\IWH_SH_I2C\SH1051_PUMP\SH1051_BS84B08C_PUMP\USER_PROGRAM\USER_PROGRAM.C"
 376  0003  3800     E  	snz _b_flag10msInTest
 376  0004  2800     R  	jmp _L24
 378  0005              #line 378 "C:\Users\Huy Le\Documents\VSHOME\SONHA\IWH_SH_I2C\SH1051_PUMP\SH1051_BS84B08C_PUMP\USER_PROGRAM\USER_PROGRAM.C"
 378  0005  3400     E  	clr _b_flag10msInTest
 378  0006              _L24:
 382  0006              #line 382 "C:\Users\Huy Le\Documents\VSHOME\SONHA\IWH_SH_I2C\SH1051_PUMP\SH1051_BS84B08C_PUMP\USER_PROGRAM\USER_PROGRAM.C"
 382  0006  3800     E  	snz _b_flag100msInTest
 382  0007  2800     R  	jmp _L25
 384  0008              #line 384 "C:\Users\Huy Le\Documents\VSHOME\SONHA\IWH_SH_I2C\SH1051_PUMP\SH1051_BS84B08C_PUMP\USER_PROGRAM\USER_PROGRAM.C"
 384  0008  3400     E  	clr _b_flag100msInTest
 384  0009              _L25:
 387  0009              #line 387 "C:\Users\Huy Le\Documents\VSHOME\SONHA\IWH_SH_I2C\SH1051_PUMP\SH1051_BS84B08C_PUMP\USER_PROGRAM\USER_PROGRAM.C"
 387  0009  3800     E  	snz _b_flag500msInTest
 387  000A  2800     R  	jmp _L22
 389  000B              #line 389 "C:\Users\Huy Le\Documents\VSHOME\SONHA\IWH_SH_I2C\SH1051_PUMP\SH1051_BS84B08C_PUMP\USER_PROGRAM\USER_PROGRAM.C"
 389  000B  3400     E  	clr _b_flag500msInTest
 391  000C              #line 391 "C:\Users\Huy Le\Documents\VSHOME\SONHA\IWH_SH_I2C\SH1051_PUMP\SH1051_BS84B08C_PUMP\USER_PROGRAM\USER_PROGRAM.C"
 391  000C  3800     R  	snz _b_pump_status
 391  000D  2800     R  	jmp _L28
 393  000E              #line 393 "C:\Users\Huy Le\Documents\VSHOME\SONHA\IWH_SH_I2C\SH1051_PUMP\SH1051_BS84B08C_PUMP\USER_PROGRAM\USER_PROGRAM.C"
 393  000E  3000     R  	set _s_tx_data[0].3
 394  000F              #line 394 "C:\Users\Huy Le\Documents\VSHOME\SONHA\IWH_SH_I2C\SH1051_PUMP\SH1051_BS84B08C_PUMP\USER_PROGRAM\USER_PROGRAM.C"
 394  000F  0F02        	mov a,2
 394  0010  0080     R  	mov _CRC8_2[2],a
 394  0011  0F00     R  	mov a,low offset _s_tx_data
 394  0012  0080     R  	mov _CRC8_2[0],a
 394  0013  0F00     R  	mov a,high offset _s_tx_data
 394  0014  0080     R  	mov _CRC8_2[1],a
 394  0015  2000     R  	call _CRC8
 394  0016  0080     E  	mov ra,a
 394  0017  0700     E  	mov a,ra
 394  0018  0080     R  	mov _s_tx_data[2],a
 394  0019  2800     R  	jmp _L29
 394  001A              _L28:
 398  001A              #line 398 "C:\Users\Huy Le\Documents\VSHOME\SONHA\IWH_SH_I2C\SH1051_PUMP\SH1051_BS84B08C_PUMP\USER_PROGRAM\USER_PROGRAM.C"
 398  001A  2000     E  	call _clearLedPump
 399  001B              #line 399 "C:\Users\Huy Le\Documents\VSHOME\SONHA\IWH_SH_I2C\SH1051_PUMP\SH1051_BS84B08C_PUMP\USER_PROGRAM\USER_PROGRAM.C"
 399  001B  2000     E  	call _update
 399  001C              _L29:
 403  001C              #line 403 "C:\Users\Huy Le\Documents\VSHOME\SONHA\IWH_SH_I2C\SH1051_PUMP\SH1051_BS84B08C_PUMP\USER_PROGRAM\USER_PROGRAM.C"
 403  001C  0F02        	mov a,2
 403  001D  0200     R  	sub a,_time_check_test[0]
 403  001E  3C0A        	sz c
 403  001F  2800     R  	jmp _L22
 406  0020              #line 406 "C:\Users\Huy Le\Documents\VSHOME\SONHA\IWH_SH_I2C\SH1051_PUMP\SH1051_BS84B08C_PUMP\USER_PROGRAM\USER_PROGRAM.C"
 406  0020  3800     R  	snz _machine_state[0].3
 406  0021  2800     R  	jmp _L31
 408  0022              #line 408 "C:\Users\Huy Le\Documents\VSHOME\SONHA\IWH_SH_I2C\SH1051_PUMP\SH1051_BS84B08C_PUMP\USER_PROGRAM\USER_PROGRAM.C"
 408  0022  2000     E  	call _setLedELCB
"File: USER_PROGRAM.C  Assembler  Version HGASM0202      Page 8

 409  0023              #line 409 "C:\Users\Huy Le\Documents\VSHOME\SONHA\IWH_SH_I2C\SH1051_PUMP\SH1051_BS84B08C_PUMP\USER_PROGRAM\USER_PROGRAM.C"
 409  0023  2000     E  	call _clearSeg12
 410  0024              #line 410 "C:\Users\Huy Le\Documents\VSHOME\SONHA\IWH_SH_I2C\SH1051_PUMP\SH1051_BS84B08C_PUMP\USER_PROGRAM\USER_PROGRAM.C"
 410  0024  2000     E  	call _update
 411  0025              #line 411 "C:\Users\Huy Le\Documents\VSHOME\SONHA\IWH_SH_I2C\SH1051_PUMP\SH1051_BS84B08C_PUMP\USER_PROGRAM\USER_PROGRAM.C"
 411  0025  2000     E  	call _set_buzzer_off_forever
 411  0026  2800     R  	jmp _L22
 411  0027              _L31:
 415  0027              #line 415 "C:\Users\Huy Le\Documents\VSHOME\SONHA\IWH_SH_I2C\SH1051_PUMP\SH1051_BS84B08C_PUMP\USER_PROGRAM\USER_PROGRAM.C"
 415  0027  3800     R  	snz _b_tonggle_E2_in_mode_test
 415  0028  2800     R  	jmp _L32
 417  0029              #line 417 "C:\Users\Huy Le\Documents\VSHOME\SONHA\IWH_SH_I2C\SH1051_PUMP\SH1051_BS84B08C_PUMP\USER_PROGRAM\USER_PROGRAM.C"
 417  0029  3214        	set [20].4
 418  002A              #line 418 "C:\Users\Huy Le\Documents\VSHOME\SONHA\IWH_SH_I2C\SH1051_PUMP\SH1051_BS84B08C_PUMP\USER_PROGRAM\USER_PROGRAM.C"
 418  002A  0F02        	mov a,2
 418  002B  0080     E  	mov _setSeg12_2[0],a
 418  002C  0F0E        	mov a,14
 418  002D  2000     E  	call _setSeg12
 418  002E  2800     R  	jmp _L34
 418  002F              _L32:
 423  002F              #line 423 "C:\Users\Huy Le\Documents\VSHOME\SONHA\IWH_SH_I2C\SH1051_PUMP\SH1051_BS84B08C_PUMP\USER_PROGRAM\USER_PROGRAM.C"
 423  002F  3614        	clr [20].4
 424  0030              #line 424 "C:\Users\Huy Le\Documents\VSHOME\SONHA\IWH_SH_I2C\SH1051_PUMP\SH1051_BS84B08C_PUMP\USER_PROGRAM\USER_PROGRAM.C"
 424  0030  2000     E  	call _clearSeg12
 424  0031              _L34:
 425  0031              #line 425 "C:\Users\Huy Le\Documents\VSHOME\SONHA\IWH_SH_I2C\SH1051_PUMP\SH1051_BS84B08C_PUMP\USER_PROGRAM\USER_PROGRAM.C"
 425  0031  2000     E  	call _update
 425  0032  3C00     R  	sz _b_tonggle_E2_in_mode_test
 425  0033  2800     R  	jmp _LI1
 425  0034  3000     R  	set _b_tonggle_E2_in_mode_test
 425  0035  2800     R  	jmp _LI2
 425  0036              _LI1:
 425  0036  3400     R  	clr _b_tonggle_E2_in_mode_test
 425  0037              _LI2:
 429  0037              #line 429 "C:\Users\Huy Le\Documents\VSHOME\SONHA\IWH_SH_I2C\SH1051_PUMP\SH1051_BS84B08C_PUMP\USER_PROGRAM\USER_PROGRAM.C"
 429  0037  2000     E  	call _set_buzzer_on_forever
 429  0038              _L22:
 429  0038  0003        	ret
 429  0039              _mode_test_program endp
 429  0039              #line 429 "C:\Users\Huy Le\Documents\VSHOME\SONHA\IWH_SH_I2C\SH1051_PUMP\SH1051_BS84B08C_PUMP\USER_PROGRAM\USER_PROGRAM.C"
 429  0039              #pragma debug scope 1 1
 429  0039              public _mode_power_off_program
 429  0039              #pragma debug scope 9 1
 515  0039              #line 515 "C:\Users\Huy Le\Documents\VSHOME\SONHA\IWH_SH_I2C\SH1051_PUMP\SH1051_BS84B08C_PUMP\USER_PROGRAM\USER_PROGRAM.C"
 515  0000              _mode_power_off_program .section 'code'
 515  0000              _mode_power_off_program proc
 517  0000              #line 517 "C:\Users\Huy Le\Documents\VSHOME\SONHA\IWH_SH_I2C\SH1051_PUMP\SH1051_BS84B08C_PUMP\USER_PROGRAM\USER_PROGRAM.C"
 517  0000  3800     E  	snz _b_flag500msInPowerOff
 517  0001  2800     R  	jmp _L35
 519  0002              #line 519 "C:\Users\Huy Le\Documents\VSHOME\SONHA\IWH_SH_I2C\SH1051_PUMP\SH1051_BS84B08C_PUMP\USER_PROGRAM\USER_PROGRAM.C"
 519  0002  3400     E  	clr _b_flag500msInPowerOff
 521  0003              #line 521 "C:\Users\Huy Le\Documents\VSHOME\SONHA\IWH_SH_I2C\SH1051_PUMP\SH1051_BS84B08C_PUMP\USER_PROGRAM\USER_PROGRAM.C"
 521  0003  3800     R  	snz _b_pump_status
 521  0004  2800     R  	jmp _L38
 523  0005              #line 523 "C:\Users\Huy Le\Documents\VSHOME\SONHA\IWH_SH_I2C\SH1051_PUMP\SH1051_BS84B08C_PUMP\USER_PROGRAM\USER_PROGRAM.C"
 523  0005  3000     R  	set _s_tx_data[0].3
 524  0006              #line 524 "C:\Users\Huy Le\Documents\VSHOME\SONHA\IWH_SH_I2C\SH1051_PUMP\SH1051_BS84B08C_PUMP\USER_PROGRAM\USER_PROGRAM.C"
 524  0006  0F02        	mov a,2
 524  0007  0080     R  	mov _CRC8_2[2],a
 524  0008  0F00     R  	mov a,low offset _s_tx_data
"File: USER_PROGRAM.C  Assembler  Version HGASM0202      Page 9

 524  0009  0080     R  	mov _CRC8_2[0],a
 524  000A  0F00     R  	mov a,high offset _s_tx_data
 524  000B  0080     R  	mov _CRC8_2[1],a
 524  000C  2000     R  	call _CRC8
 524  000D  0080     E  	mov ra,a
 524  000E  0700     E  	mov a,ra
 524  000F  0080     R  	mov _s_tx_data[2],a
 524  0010  2800     R  	jmp _L39
 524  0011              _L38:
 528  0011              #line 528 "C:\Users\Huy Le\Documents\VSHOME\SONHA\IWH_SH_I2C\SH1051_PUMP\SH1051_BS84B08C_PUMP\USER_PROGRAM\USER_PROGRAM.C"
 528  0011  2000     E  	call _clearLedPump
 529  0012              #line 529 "C:\Users\Huy Le\Documents\VSHOME\SONHA\IWH_SH_I2C\SH1051_PUMP\SH1051_BS84B08C_PUMP\USER_PROGRAM\USER_PROGRAM.C"
 529  0012  2000     E  	call _update
 529  0013              _L39:
 533  0013              #line 533 "C:\Users\Huy Le\Documents\VSHOME\SONHA\IWH_SH_I2C\SH1051_PUMP\SH1051_BS84B08C_PUMP\USER_PROGRAM\USER_PROGRAM.C"
 533  0013  0F02        	mov a,2
 533  0014  0200     R  	sub a,_time_check_reset[0]
 533  0015  3C0A        	sz c
 533  0016  2800     R  	jmp _L35
 535  0017              #line 535 "C:\Users\Huy Le\Documents\VSHOME\SONHA\IWH_SH_I2C\SH1051_PUMP\SH1051_BS84B08C_PUMP\USER_PROGRAM\USER_PROGRAM.C"
 535  0017  3800     R  	snz _machine_state[0].3
 535  0018  2800     R  	jmp _L41
 538  0019              #line 538 "C:\Users\Huy Le\Documents\VSHOME\SONHA\IWH_SH_I2C\SH1051_PUMP\SH1051_BS84B08C_PUMP\USER_PROGRAM\USER_PROGRAM.C"
 538  0019  3800     R  	snz _b_tonggle_E3_in_mode_reset
 538  001A  2800     R  	jmp _L42
 540  001B              #line 540 "C:\Users\Huy Le\Documents\VSHOME\SONHA\IWH_SH_I2C\SH1051_PUMP\SH1051_BS84B08C_PUMP\USER_PROGRAM\USER_PROGRAM.C"
 540  001B  3214        	set [20].4
 541  001C              #line 541 "C:\Users\Huy Le\Documents\VSHOME\SONHA\IWH_SH_I2C\SH1051_PUMP\SH1051_BS84B08C_PUMP\USER_PROGRAM\USER_PROGRAM.C"
 541  001C  2000     E  	call _setLedELCB
 542  001D              #line 542 "C:\Users\Huy Le\Documents\VSHOME\SONHA\IWH_SH_I2C\SH1051_PUMP\SH1051_BS84B08C_PUMP\USER_PROGRAM\USER_PROGRAM.C"
 542  001D  0F02        	mov a,2
 542  001E  0080     E  	mov _setSeg12_2[0],a
 542  001F  0F0E        	mov a,14
 542  0020  2000     E  	call _setSeg12
 542  0021  2800     R  	jmp _L44
 542  0022              _L42:
 547  0022              #line 547 "C:\Users\Huy Le\Documents\VSHOME\SONHA\IWH_SH_I2C\SH1051_PUMP\SH1051_BS84B08C_PUMP\USER_PROGRAM\USER_PROGRAM.C"
 547  0022  3614        	clr [20].4
 548  0023              #line 548 "C:\Users\Huy Le\Documents\VSHOME\SONHA\IWH_SH_I2C\SH1051_PUMP\SH1051_BS84B08C_PUMP\USER_PROGRAM\USER_PROGRAM.C"
 548  0023  2000     E  	call _clearLedELCB
 549  0024              #line 549 "C:\Users\Huy Le\Documents\VSHOME\SONHA\IWH_SH_I2C\SH1051_PUMP\SH1051_BS84B08C_PUMP\USER_PROGRAM\USER_PROGRAM.C"
 549  0024  2000     E  	call _clearSeg12
 549  0025              _L44:
 550  0025              #line 550 "C:\Users\Huy Le\Documents\VSHOME\SONHA\IWH_SH_I2C\SH1051_PUMP\SH1051_BS84B08C_PUMP\USER_PROGRAM\USER_PROGRAM.C"
 550  0025  2000     E  	call _update
 550  0026  3C00     R  	sz _b_tonggle_E3_in_mode_reset
 550  0027  2800     R  	jmp _LI3
 550  0028  3000     R  	set _b_tonggle_E3_in_mode_reset
 550  0029  2800     R  	jmp _LI4
 550  002A              _LI3:
 550  002A  3400     R  	clr _b_tonggle_E3_in_mode_reset
 550  002B              _LI4:
 554  002B              #line 554 "C:\Users\Huy Le\Documents\VSHOME\SONHA\IWH_SH_I2C\SH1051_PUMP\SH1051_BS84B08C_PUMP\USER_PROGRAM\USER_PROGRAM.C"
 554  002B  2000     E  	call _set_buzzer_on_forever
 554  002C  2800     R  	jmp _L35
 554  002D              _L41:
 558  002D              #line 558 "C:\Users\Huy Le\Documents\VSHOME\SONHA\IWH_SH_I2C\SH1051_PUMP\SH1051_BS84B08C_PUMP\USER_PROGRAM\USER_PROGRAM.C"
 558  002D  3614        	clr [20].4
 559  002E              #line 559 "C:\Users\Huy Le\Documents\VSHOME\SONHA\IWH_SH_I2C\SH1051_PUMP\SH1051_BS84B08C_PUMP\USER_PROGRAM\USER_PROGRAM.C"
 559  002E  2000     E  	call _clear
"File: USER_PROGRAM.C  Assembler  Version HGASM0202      Page 10

 560  002F              #line 560 "C:\Users\Huy Le\Documents\VSHOME\SONHA\IWH_SH_I2C\SH1051_PUMP\SH1051_BS84B08C_PUMP\USER_PROGRAM\USER_PROGRAM.C"
 560  002F  2000     E  	call _update
 561  0030              #line 561 "C:\Users\Huy Le\Documents\VSHOME\SONHA\IWH_SH_I2C\SH1051_PUMP\SH1051_BS84B08C_PUMP\USER_PROGRAM\USER_PROGRAM.C"
 561  0030  2000     E  	call _set_buzzer_off_forever
 561  0031              _L35:
 561  0031  0003        	ret
 561  0032              _mode_power_off_program endp
 561  0032              #line 561 "C:\Users\Huy Le\Documents\VSHOME\SONHA\IWH_SH_I2C\SH1051_PUMP\SH1051_BS84B08C_PUMP\USER_PROGRAM\USER_PROGRAM.C"
 561  0032              #pragma debug scope 1 1
 561  0032              ___pd equ [53]
 561  0032              public _mode_power_on_program
 561  0032              #pragma debug scope 10 1
 567  0032              #line 567 "C:\Users\Huy Le\Documents\VSHOME\SONHA\IWH_SH_I2C\SH1051_PUMP\SH1051_BS84B08C_PUMP\USER_PROGRAM\USER_PROGRAM.C"
 567  0000              _mode_power_on_program .section 'code'
 567  0000              _mode_power_on_program proc
 568  0000              #line 568 "C:\Users\Huy Le\Documents\VSHOME\SONHA\IWH_SH_I2C\SH1051_PUMP\SH1051_BS84B08C_PUMP\USER_PROGRAM\USER_PROGRAM.C"
 568  0000  3800     E  	snz _b_flag2msInPowerOn
 568  0001  2800     R  	jmp _L47
 570  0002              #line 570 "C:\Users\Huy Le\Documents\VSHOME\SONHA\IWH_SH_I2C\SH1051_PUMP\SH1051_BS84B08C_PUMP\USER_PROGRAM\USER_PROGRAM.C"
 570  0002  3400     E  	clr _b_flag2msInPowerOn
 572  0003              #line 572 "C:\Users\Huy Le\Documents\VSHOME\SONHA\IWH_SH_I2C\SH1051_PUMP\SH1051_BS84B08C_PUMP\USER_PROGRAM\USER_PROGRAM.C"
 572  0003  1080     R  	sz _machine_state[0]
 572  0004  2800     R  	jmp _LI5
 572  0005  2800     R  	jmp _L48
 572  0006              _LI5:
 572  0006  0700     R  	mov a,_machine_state[0]
 572  0007  0A40        	sub a,64
 572  0008  390A        	snz z
 572  0009  2800     R  	jmp _L47
 572  000A              _L48:
 573  000A              #line 573 "C:\Users\Huy Le\Documents\VSHOME\SONHA\IWH_SH_I2C\SH1051_PUMP\SH1051_BS84B08C_PUMP\USER_PROGRAM\USER_PROGRAM.C"
 573  000A  1F00     R  	clr _pulse_cur[0]
 573  000B  3CB5        	sz [53].1
 573  000C  1480     R  	inc _pulse_cur[0]
 574  000D              #line 574 "C:\Users\Huy Le\Documents\VSHOME\SONHA\IWH_SH_I2C\SH1051_PUMP\SH1051_BS84B08C_PUMP\USER_PROGRAM\USER_PROGRAM.C"
 574  000D  0700     R  	mov a,_pulse_cur[0]
 574  000E  0200     R  	sub a,_pulse_pre[0]
 574  000F  3D0A        	sz z
 574  0010  2800     R  	jmp _L51
 575  0011              #line 575 "C:\Users\Huy Le\Documents\VSHOME\SONHA\IWH_SH_I2C\SH1051_PUMP\SH1051_BS84B08C_PUMP\USER_PROGRAM\USER_PROGRAM.C"
 575  0011  0735        	mov a,[53]
 575  0012  0E01        	and a,1
 575  0013  0080     E  	mov rd,a
 575  0014  1F00     E  	clr re
 575  0015  0700     R  	mov a,_pulse_cur[0]
 575  0016  0080     E  	mov rb,a
 575  0017  1F00     E  	clr rc
 576  0018              #line 576 "C:\Users\Huy Le\Documents\VSHOME\SONHA\IWH_SH_I2C\SH1051_PUMP\SH1051_BS84B08C_PUMP\USER_PROGRAM\USER_PROGRAM.C"
 576  0018  1480     R  	inc _buff_dem[0]
 575  0019              #line 575 "C:\Users\Huy Le\Documents\VSHOME\SONHA\IWH_SH_I2C\SH1051_PUMP\SH1051_BS84B08C_PUMP\USER_PROGRAM\USER_PROGRAM.C"
 575  0019  0700     E  	mov a,rd
 575  001A  0400     E  	xor a,rb
 575  001B  0700     E  	mov a,re
 575  001C  3D0A        	sz z
 575  001D  0400     E  	xor a,rc
 575  001E  3D0A        	sz z
 575  001F  2800     R  	jmp _L52
 577  0020              #line 577 "C:\Users\Huy Le\Documents\VSHOME\SONHA\IWH_SH_I2C\SH1051_PUMP\SH1051_BS84B08C_PUMP\USER_PROGRAM\USER_PROGRAM.C"
 577  0020  0700     R  	mov a,_buff_dem[0]
 577  0021  0A02        	sub a,2
"File: USER_PROGRAM.C  Assembler  Version HGASM0202      Page 11

 577  0022  390A        	snz z
 577  0023  2800     R  	jmp _L51
 578  0024              #line 578 "C:\Users\Huy Le\Documents\VSHOME\SONHA\IWH_SH_I2C\SH1051_PUMP\SH1051_BS84B08C_PUMP\USER_PROGRAM\USER_PROGRAM.C"
 578  0024  1480     R  	inc _temp_set[0]
 579  0025              #line 579 "C:\Users\Huy Le\Documents\VSHOME\SONHA\IWH_SH_I2C\SH1051_PUMP\SH1051_BS84B08C_PUMP\USER_PROGRAM\USER_PROGRAM.C"
 579  0025  0F37        	mov a,55
 579  0026  0200     R  	sub a,_temp_set[0]
 579  0027  3C0A        	sz c
 579  0028  2800     R  	jmp _L55
 580  0029              #line 580 "C:\Users\Huy Le\Documents\VSHOME\SONHA\IWH_SH_I2C\SH1051_PUMP\SH1051_BS84B08C_PUMP\USER_PROGRAM\USER_PROGRAM.C"
 580  0029  0F37        	mov a,55
 580  002A  0080     R  	mov _temp_set[0],a
 580  002B  2800     R  	jmp _L55
 580  002C              _L52:
 592  002C              #line 592 "C:\Users\Huy Le\Documents\VSHOME\SONHA\IWH_SH_I2C\SH1051_PUMP\SH1051_BS84B08C_PUMP\USER_PROGRAM\USER_PROGRAM.C"
 592  002C  0700     R  	mov a,_buff_dem[0]
 592  002D  0A02        	sub a,2
 592  002E  390A        	snz z
 592  002F  2800     R  	jmp _L51
 593  0030              #line 593 "C:\Users\Huy Le\Documents\VSHOME\SONHA\IWH_SH_I2C\SH1051_PUMP\SH1051_BS84B08C_PUMP\USER_PROGRAM\USER_PROGRAM.C"
 593  0030  1580     R  	dec _temp_set[0]
 594  0031              #line 594 "C:\Users\Huy Le\Documents\VSHOME\SONHA\IWH_SH_I2C\SH1051_PUMP\SH1051_BS84B08C_PUMP\USER_PROGRAM\USER_PROGRAM.C"
 594  0031  0F1D        	mov a,29
 594  0032  0200     R  	sub a,_temp_set[0]
 594  0033  380A        	snz c
 594  0034  2800     R  	jmp _L55
 595  0035              #line 595 "C:\Users\Huy Le\Documents\VSHOME\SONHA\IWH_SH_I2C\SH1051_PUMP\SH1051_BS84B08C_PUMP\USER_PROGRAM\USER_PROGRAM.C"
 595  0035  0F1E        	mov a,30
 595  0036  0080     R  	mov _temp_set[0],a
 595  0037              _L55:
 597  0037              #line 597 "C:\Users\Huy Le\Documents\VSHOME\SONHA\IWH_SH_I2C\SH1051_PUMP\SH1051_BS84B08C_PUMP\USER_PROGRAM\USER_PROGRAM.C"
 597  0037  0F64        	mov a,100
 597  0038  0080     E  	mov _set_buzzer_on_2[0],a
 597  0039  1F00     E  	clr _set_buzzer_on_2[1]
 597  003A  2000     E  	call _set_buzzer_on
 598  003B              #line 598 "C:\Users\Huy Le\Documents\VSHOME\SONHA\IWH_SH_I2C\SH1051_PUMP\SH1051_BS84B08C_PUMP\USER_PROGRAM\USER_PROGRAM.C"
 598  003B  1F00     E  	clr _builtin_holtek_udivmodqi4_2[3]
 598  003C  0700     R  	mov a,_temp_set[0]
 598  003D  0080     E  	mov _builtin_holtek_udivmodqi4_2[0],a
 598  003E  0F0A        	mov a,10
 598  003F  0080     E  	mov _builtin_holtek_udivmodqi4_2[1],a
 598  0040  2000     E  	call _builtin_holtek_udivmodqi4
 598  0041  0700     E  	mov a,_builtin_holtek_udivmodqi4_2[0]
 598  0042  0080     E  	mov ra,a
 598  0043  1F00     E  	clr _builtin_holtek_udivmodqi4_2[3]
 598  0044  0700     R  	mov a,_temp_set[0]
 598  0045  0080     E  	mov _builtin_holtek_udivmodqi4_2[0],a
 598  0046  0F0A        	mov a,10
 598  0047  0080     E  	mov _builtin_holtek_udivmodqi4_2[1],a
 598  0048  2000     E  	call _builtin_holtek_udivmodqi4
 598  0049  0700     E  	mov a,_builtin_holtek_udivmodqi4_2[2]
 598  004A  0080     E  	mov _setSeg12_2[0],a
 598  004B  0700     E  	mov a,ra
 598  004C  2000     E  	call _setSeg12
 599  004D              #line 599 "C:\Users\Huy Le\Documents\VSHOME\SONHA\IWH_SH_I2C\SH1051_PUMP\SH1051_BS84B08C_PUMP\USER_PROGRAM\USER_PROGRAM.C"
 599  004D  2000     E  	call _update
 600  004E              #line 600 "C:\Users\Huy Le\Documents\VSHOME\SONHA\IWH_SH_I2C\SH1051_PUMP\SH1051_BS84B08C_PUMP\USER_PROGRAM\USER_PROGRAM.C"
 600  004E  1F00     R  	clr _buff_dem[0]
 601  004F              #line 601 "C:\Users\Huy Le\Documents\VSHOME\SONHA\IWH_SH_I2C\SH1051_PUMP\SH1051_BS84B08C_PUMP\USER_PROGRAM\USER_PROGRAM.C"
 601  004F  3000     R  	set _b_switch_temp
"File: USER_PROGRAM.C  Assembler  Version HGASM0202      Page 12

 602  0050              #line 602 "C:\Users\Huy Le\Documents\VSHOME\SONHA\IWH_SH_I2C\SH1051_PUMP\SH1051_BS84B08C_PUMP\USER_PROGRAM\USER_PROGRAM.C"
 602  0050  0F06        	mov a,6
 602  0051  0080     R  	mov _switch_temp_cnt[0],a
 603  0052              #line 603 "C:\Users\Huy Le\Documents\VSHOME\SONHA\IWH_SH_I2C\SH1051_PUMP\SH1051_BS84B08C_PUMP\USER_PROGRAM\USER_PROGRAM.C"
 603  0052  3000     R  	set _bit_7seg_temp_tonggle
 603  0053              _L51:
 607  0053              #line 607 "C:\Users\Huy Le\Documents\VSHOME\SONHA\IWH_SH_I2C\SH1051_PUMP\SH1051_BS84B08C_PUMP\USER_PROGRAM\USER_PROGRAM.C"
 607  0053  0700     R  	mov a,_pulse_cur[0]
 607  0054  0080     R  	mov _pulse_pre[0],a
 609  0055              #line 609 "C:\Users\Huy Le\Documents\VSHOME\SONHA\IWH_SH_I2C\SH1051_PUMP\SH1051_BS84B08C_PUMP\USER_PROGRAM\USER_PROGRAM.C"
 609  0055  0700     R  	mov a,_temp_set[0]
 609  0056  0080     R  	mov _s_tx_data[1],a
 610  0057              #line 610 "C:\Users\Huy Le\Documents\VSHOME\SONHA\IWH_SH_I2C\SH1051_PUMP\SH1051_BS84B08C_PUMP\USER_PROGRAM\USER_PROGRAM.C"
 610  0057  0F02        	mov a,2
 610  0058  0080     R  	mov _CRC8_2[2],a
 610  0059  0F00     R  	mov a,low offset _s_tx_data
 610  005A  0080     R  	mov _CRC8_2[0],a
 610  005B  0F00     R  	mov a,high offset _s_tx_data
 610  005C  0080     R  	mov _CRC8_2[1],a
 610  005D  2000     R  	call _CRC8
 610  005E  0080     E  	mov ra,a
 610  005F  0700     E  	mov a,ra
 610  0060  0080     R  	mov _s_tx_data[2],a
 610  0061              _L47:
 615  0061              #line 615 "C:\Users\Huy Le\Documents\VSHOME\SONHA\IWH_SH_I2C\SH1051_PUMP\SH1051_BS84B08C_PUMP\USER_PROGRAM\USER_PROGRAM.C"
 615  0061  3800     E  	snz _b_flag10msInPowerOn
 615  0062  2800     R  	jmp _L56
 617  0063              #line 617 "C:\Users\Huy Le\Documents\VSHOME\SONHA\IWH_SH_I2C\SH1051_PUMP\SH1051_BS84B08C_PUMP\USER_PROGRAM\USER_PROGRAM.C"
 617  0063  3400     E  	clr _b_flag10msInPowerOn
 617  0064              _L56:
 622  0064              #line 622 "C:\Users\Huy Le\Documents\VSHOME\SONHA\IWH_SH_I2C\SH1051_PUMP\SH1051_BS84B08C_PUMP\USER_PROGRAM\USER_PROGRAM.C"
 622  0064  3800     E  	snz _b_flag100msInPowerOn
 622  0065  2800     R  	jmp _L57
 624  0066              #line 624 "C:\Users\Huy Le\Documents\VSHOME\SONHA\IWH_SH_I2C\SH1051_PUMP\SH1051_BS84B08C_PUMP\USER_PROGRAM\USER_PROGRAM.C"
 624  0066  3400     E  	clr _b_flag100msInPowerOn
 624  0067              _L57:
 628  0067              #line 628 "C:\Users\Huy Le\Documents\VSHOME\SONHA\IWH_SH_I2C\SH1051_PUMP\SH1051_BS84B08C_PUMP\USER_PROGRAM\USER_PROGRAM.C"
 628  0067  3800     E  	snz _b_flag500msInPowerOn
 628  0068  2800     R  	jmp _L45
 630  0069              #line 630 "C:\Users\Huy Le\Documents\VSHOME\SONHA\IWH_SH_I2C\SH1051_PUMP\SH1051_BS84B08C_PUMP\USER_PROGRAM\USER_PROGRAM.C"
 630  0069  3400     E  	clr _b_flag500msInPowerOn
 633  006A              #line 633 "C:\Users\Huy Le\Documents\VSHOME\SONHA\IWH_SH_I2C\SH1051_PUMP\SH1051_BS84B08C_PUMP\USER_PROGRAM\USER_PROGRAM.C"
 633  006A  1080     R  	sz _machine_state[0]
 633  006B  2800     R  	jmp _LI6
 633  006C  2800     R  	jmp _L60
 633  006D              _LI6:
 633  006D  0700     R  	mov a,_machine_state[0]
 633  006E  0A40        	sub a,64
 633  006F  390A        	snz z
 633  0070  2800     R  	jmp _L61
 633  0071              _L60:
 636  0071              #line 636 "C:\Users\Huy Le\Documents\VSHOME\SONHA\IWH_SH_I2C\SH1051_PUMP\SH1051_BS84B08C_PUMP\USER_PROGRAM\USER_PROGRAM.C"
 636  0071  2000     E  	call _clearLedELCB
 637  0072              #line 637 "C:\Users\Huy Le\Documents\VSHOME\SONHA\IWH_SH_I2C\SH1051_PUMP\SH1051_BS84B08C_PUMP\USER_PROGRAM\USER_PROGRAM.C"
 637  0072  2000     E  	call _update
 639  0073              #line 639 "C:\Users\Huy Le\Documents\VSHOME\SONHA\IWH_SH_I2C\SH1051_PUMP\SH1051_BS84B08C_PUMP\USER_PROGRAM\USER_PROGRAM.C"
 639  0073  3214        	set [20].4
 640  0074              #line 640 "C:\Users\Huy Le\Documents\VSHOME\SONHA\IWH_SH_I2C\SH1051_PUMP\SH1051_BS84B08C_PUMP\USER_PROGRAM\USER_PROGRAM.C"
 640  0074  3800     R  	snz _b_switch_temp
 640  0075  2800     R  	jmp _L62
"File: USER_PROGRAM.C  Assembler  Version HGASM0202      Page 13

 640  0076  1080     R  	sz _switch_temp_cnt[0]
 640  0077  2800     R  	jmp _LI7
 640  0078  2800     R  	jmp _L62
 640  0079              _LI7:
 641  0079              #line 641 "C:\Users\Huy Le\Documents\VSHOME\SONHA\IWH_SH_I2C\SH1051_PUMP\SH1051_BS84B08C_PUMP\USER_PROGRAM\USER_PROGRAM.C"
 641  0079  3800     R  	snz _bit_7seg_temp_tonggle
 641  007A  2800     R  	jmp _L63
 642  007B              #line 642 "C:\Users\Huy Le\Documents\VSHOME\SONHA\IWH_SH_I2C\SH1051_PUMP\SH1051_BS84B08C_PUMP\USER_PROGRAM\USER_PROGRAM.C"
 642  007B  1F00     E  	clr _builtin_holtek_udivmodqi4_2[3]
 642  007C  0700     R  	mov a,_temp_set[0]
 642  007D  0080     E  	mov _builtin_holtek_udivmodqi4_2[0],a
 642  007E  0F0A        	mov a,10
 642  007F  0080     E  	mov _builtin_holtek_udivmodqi4_2[1],a
 642  0080  2000     E  	call _builtin_holtek_udivmodqi4
 642  0081  0700     E  	mov a,_builtin_holtek_udivmodqi4_2[0]
 642  0082  0080     E  	mov ra,a
 642  0083  1F00     E  	clr _builtin_holtek_udivmodqi4_2[3]
 642  0084  0700     R  	mov a,_temp_set[0]
 642  0085  0080     E  	mov _builtin_holtek_udivmodqi4_2[0],a
 642  0086  0F0A        	mov a,10
 642  0087  0080     E  	mov _builtin_holtek_udivmodqi4_2[1],a
 642  0088  2000     E  	call _builtin_holtek_udivmodqi4
 642  0089  0700     E  	mov a,_builtin_holtek_udivmodqi4_2[2]
 642  008A  0080     E  	mov _setSeg12_2[0],a
 642  008B  0700     E  	mov a,ra
 642  008C  2000     E  	call _setSeg12
 643  008D              #line 643 "C:\Users\Huy Le\Documents\VSHOME\SONHA\IWH_SH_I2C\SH1051_PUMP\SH1051_BS84B08C_PUMP\USER_PROGRAM\USER_PROGRAM.C"
 643  008D  2000     E  	call _update
 644  008E              #line 644 "C:\Users\Huy Le\Documents\VSHOME\SONHA\IWH_SH_I2C\SH1051_PUMP\SH1051_BS84B08C_PUMP\USER_PROGRAM\USER_PROGRAM.C"
 644  008E  1580     R  	dec _switch_temp_cnt[0]
 644  008F  2800     R  	jmp _L64
 644  0090              _L63:
 646  0090              #line 646 "C:\Users\Huy Le\Documents\VSHOME\SONHA\IWH_SH_I2C\SH1051_PUMP\SH1051_BS84B08C_PUMP\USER_PROGRAM\USER_PROGRAM.C"
 646  0090  2000     E  	call _clearSeg12
 647  0091              #line 647 "C:\Users\Huy Le\Documents\VSHOME\SONHA\IWH_SH_I2C\SH1051_PUMP\SH1051_BS84B08C_PUMP\USER_PROGRAM\USER_PROGRAM.C"
 647  0091  2000     E  	call _update
 647  0092              _L64:
 649  0092              #line 649 "C:\Users\Huy Le\Documents\VSHOME\SONHA\IWH_SH_I2C\SH1051_PUMP\SH1051_BS84B08C_PUMP\USER_PROGRAM\USER_PROGRAM.C"
 649  0092  3C00     R  	sz _bit_7seg_temp_tonggle
 649  0093  2800     R  	jmp _LI8
 649  0094  3000     R  	set _bit_7seg_temp_tonggle
 649  0095  2800     R  	jmp _LI9
 649  0096              _LI8:
 649  0096  3400     R  	clr _bit_7seg_temp_tonggle
 649  0097              _LI9:
 649  0097              _L62:
 651  0097              #line 651 "C:\Users\Huy Le\Documents\VSHOME\SONHA\IWH_SH_I2C\SH1051_PUMP\SH1051_BS84B08C_PUMP\USER_PROGRAM\USER_PROGRAM.C"
 651  0097  1080     R  	sz _switch_temp_cnt[0]
 651  0098  2800     R  	jmp _L65
 652  0099              #line 652 "C:\Users\Huy Le\Documents\VSHOME\SONHA\IWH_SH_I2C\SH1051_PUMP\SH1051_BS84B08C_PUMP\USER_PROGRAM\USER_PROGRAM.C"
 652  0099  0700     R  	mov a,_u8_temp_fb[0]
 652  009A  0080     E  	mov ra,a
 652  009B  1F00     E  	clr _builtin_holtek_udivmodqi4_2[3]
 652  009C  0700     E  	mov a,ra
 652  009D  0080     E  	mov _builtin_holtek_udivmodqi4_2[0],a
 652  009E  0F0A        	mov a,10
 652  009F  0080     E  	mov _builtin_holtek_udivmodqi4_2[1],a
 652  00A0  2000     E  	call _builtin_holtek_udivmodqi4
 652  00A1  0700     E  	mov a,_builtin_holtek_udivmodqi4_2[0]
 652  00A2  0080     E  	mov rb,a
"File: USER_PROGRAM.C  Assembler  Version HGASM0202      Page 14

 652  00A3  1F00     E  	clr _builtin_holtek_udivmodqi4_2[3]
 652  00A4  0700     E  	mov a,ra
 652  00A5  0080     E  	mov _builtin_holtek_udivmodqi4_2[0],a
 652  00A6  0F0A        	mov a,10
 652  00A7  0080     E  	mov _builtin_holtek_udivmodqi4_2[1],a
 652  00A8  2000     E  	call _builtin_holtek_udivmodqi4
 652  00A9  0700     E  	mov a,_builtin_holtek_udivmodqi4_2[2]
 652  00AA  0080     E  	mov _setSeg12_2[0],a
 652  00AB  0700     E  	mov a,rb
 652  00AC  2000     E  	call _setSeg12
 653  00AD              #line 653 "C:\Users\Huy Le\Documents\VSHOME\SONHA\IWH_SH_I2C\SH1051_PUMP\SH1051_BS84B08C_PUMP\USER_PROGRAM\USER_PROGRAM.C"
 653  00AD  2000     E  	call _update
 653  00AE              _L65:
 656  00AE              #line 656 "C:\Users\Huy Le\Documents\VSHOME\SONHA\IWH_SH_I2C\SH1051_PUMP\SH1051_BS84B08C_PUMP\USER_PROGRAM\USER_PROGRAM.C"
 656  00AE  3800     R  	snz _b_pump_status
 656  00AF  2800     R  	jmp _L66
 658  00B0              #line 658 "C:\Users\Huy Le\Documents\VSHOME\SONHA\IWH_SH_I2C\SH1051_PUMP\SH1051_BS84B08C_PUMP\USER_PROGRAM\USER_PROGRAM.C"
 658  00B0  2000     E  	call _setLedPump
 658  00B1  2800     R  	jmp _L103
 658  00B2              _L66:
 663  00B2              #line 663 "C:\Users\Huy Le\Documents\VSHOME\SONHA\IWH_SH_I2C\SH1051_PUMP\SH1051_BS84B08C_PUMP\USER_PROGRAM\USER_PROGRAM.C"
 663  00B2  2000     E  	call _clearLedPump
 663  00B3              _L103:
 664  00B3              #line 664 "C:\Users\Huy Le\Documents\VSHOME\SONHA\IWH_SH_I2C\SH1051_PUMP\SH1051_BS84B08C_PUMP\USER_PROGRAM\USER_PROGRAM.C"
 664  00B3  2000     E  	call _update
 667  00B4              #line 667 "C:\Users\Huy Le\Documents\VSHOME\SONHA\IWH_SH_I2C\SH1051_PUMP\SH1051_BS84B08C_PUMP\USER_PROGRAM\USER_PROGRAM.C"
 667  00B4  2000     E  	call _set_buzzer_off_forever
 668  00B5              #line 668 "C:\Users\Huy Le\Documents\VSHOME\SONHA\IWH_SH_I2C\SH1051_PUMP\SH1051_BS84B08C_PUMP\USER_PROGRAM\USER_PROGRAM.C"
 668  00B5  3400     R  	clr _b_tonggle_E3_in_mode_reset
 668  00B6  2800     R  	jmp _L45
 668  00B7              _L61:
 670  00B7              #line 670 "C:\Users\Huy Le\Documents\VSHOME\SONHA\IWH_SH_I2C\SH1051_PUMP\SH1051_BS84B08C_PUMP\USER_PROGRAM\USER_PROGRAM.C"
 670  00B7  3800     R  	snz _machine_state[0].3
 670  00B8  2800     R  	jmp _L68
 670  00B9  0700     R  	mov a,_time_check_reset[0]
 670  00BA  0A05        	sub a,5
 670  00BB  390A        	snz z
 670  00BC  2800     R  	jmp _L68
 672  00BD              #line 672 "C:\Users\Huy Le\Documents\VSHOME\SONHA\IWH_SH_I2C\SH1051_PUMP\SH1051_BS84B08C_PUMP\USER_PROGRAM\USER_PROGRAM.C"
 672  00BD  3800     R  	snz _b_tonggle_E3_in_mode_reset
 672  00BE  2800     R  	jmp _L69
 674  00BF              #line 674 "C:\Users\Huy Le\Documents\VSHOME\SONHA\IWH_SH_I2C\SH1051_PUMP\SH1051_BS84B08C_PUMP\USER_PROGRAM\USER_PROGRAM.C"
 674  00BF  3214        	set [20].4
 675  00C0              #line 675 "C:\Users\Huy Le\Documents\VSHOME\SONHA\IWH_SH_I2C\SH1051_PUMP\SH1051_BS84B08C_PUMP\USER_PROGRAM\USER_PROGRAM.C"
 675  00C0  2000     E  	call _setLedELCB
 676  00C1              #line 676 "C:\Users\Huy Le\Documents\VSHOME\SONHA\IWH_SH_I2C\SH1051_PUMP\SH1051_BS84B08C_PUMP\USER_PROGRAM\USER_PROGRAM.C"
 676  00C1  0F02        	mov a,2
 676  00C2  0080     E  	mov _setSeg12_2[0],a
 676  00C3  0F0E        	mov a,14
 676  00C4  2000     E  	call _setSeg12
 676  00C5  2800     R  	jmp _L104
 676  00C6              _L69:
 681  00C6              #line 681 "C:\Users\Huy Le\Documents\VSHOME\SONHA\IWH_SH_I2C\SH1051_PUMP\SH1051_BS84B08C_PUMP\USER_PROGRAM\USER_PROGRAM.C"
 681  00C6  3614        	clr [20].4
 682  00C7              #line 682 "C:\Users\Huy Le\Documents\VSHOME\SONHA\IWH_SH_I2C\SH1051_PUMP\SH1051_BS84B08C_PUMP\USER_PROGRAM\USER_PROGRAM.C"
 682  00C7  2000     E  	call _clearLedELCB
 683  00C8              #line 683 "C:\Users\Huy Le\Documents\VSHOME\SONHA\IWH_SH_I2C\SH1051_PUMP\SH1051_BS84B08C_PUMP\USER_PROGRAM\USER_PROGRAM.C"
 683  00C8  2000     E  	call _clearSeg12
 683  00C9              _L104:
 684  00C9              #line 684 "C:\Users\Huy Le\Documents\VSHOME\SONHA\IWH_SH_I2C\SH1051_PUMP\SH1051_BS84B08C_PUMP\USER_PROGRAM\USER_PROGRAM.C"
"File: USER_PROGRAM.C  Assembler  Version HGASM0202      Page 15

 684  00C9  2000     E  	call _update
 687  00CA              #line 687 "C:\Users\Huy Le\Documents\VSHOME\SONHA\IWH_SH_I2C\SH1051_PUMP\SH1051_BS84B08C_PUMP\USER_PROGRAM\USER_PROGRAM.C"
 687  00CA  3800     R  	snz _b_pump_status
 687  00CB  2800     R  	jmp _L71
 689  00CC              #line 689 "C:\Users\Huy Le\Documents\VSHOME\SONHA\IWH_SH_I2C\SH1051_PUMP\SH1051_BS84B08C_PUMP\USER_PROGRAM\USER_PROGRAM.C"
 689  00CC  3000     R  	set _s_tx_data[0].3
 690  00CD              #line 690 "C:\Users\Huy Le\Documents\VSHOME\SONHA\IWH_SH_I2C\SH1051_PUMP\SH1051_BS84B08C_PUMP\USER_PROGRAM\USER_PROGRAM.C"
 690  00CD  0F02        	mov a,2
 690  00CE  0080     R  	mov _CRC8_2[2],a
 690  00CF  0F00     R  	mov a,low offset _s_tx_data
 690  00D0  0080     R  	mov _CRC8_2[0],a
 690  00D1  0F00     R  	mov a,high offset _s_tx_data
 690  00D2  0080     R  	mov _CRC8_2[1],a
 690  00D3  2000     R  	call _CRC8
 690  00D4  0080     E  	mov ra,a
 690  00D5  0700     E  	mov a,ra
 690  00D6  0080     R  	mov _s_tx_data[2],a
 690  00D7  2800     R  	jmp _L72
 690  00D8              _L71:
 694  00D8              #line 694 "C:\Users\Huy Le\Documents\VSHOME\SONHA\IWH_SH_I2C\SH1051_PUMP\SH1051_BS84B08C_PUMP\USER_PROGRAM\USER_PROGRAM.C"
 694  00D8  2000     E  	call _clearLedPump
 695  00D9              #line 695 "C:\Users\Huy Le\Documents\VSHOME\SONHA\IWH_SH_I2C\SH1051_PUMP\SH1051_BS84B08C_PUMP\USER_PROGRAM\USER_PROGRAM.C"
 695  00D9  2000     E  	call _update
 695  00DA              _L72:
 695  00DA  3C00     R  	sz _b_tonggle_E3_in_mode_reset
 695  00DB  2800     R  	jmp _LI10
 695  00DC  3000     R  	set _b_tonggle_E3_in_mode_reset
 695  00DD  2800     R  	jmp _LI11
 695  00DE              _LI10:
 695  00DE  3400     R  	clr _b_tonggle_E3_in_mode_reset
 695  00DF              _LI11:
 695  00DF  2800     R  	jmp _L108
 695  00E0              _L68:
 706  00E0              #line 706 "C:\Users\Huy Le\Documents\VSHOME\SONHA\IWH_SH_I2C\SH1051_PUMP\SH1051_BS84B08C_PUMP\USER_PROGRAM\USER_PROGRAM.C"
 706  00E0  3800     R  	snz _machine_state[0].4
 706  00E1  2800     R  	jmp _L73
 706  00E2  1F00     E  	clr ra
 706  00E3  3800     R  	snz _b_tonggle_E3_in_mode_reset
 706  00E4  3000     E  	set ra.0
 709  00E5              #line 709 "C:\Users\Huy Le\Documents\VSHOME\SONHA\IWH_SH_I2C\SH1051_PUMP\SH1051_BS84B08C_PUMP\USER_PROGRAM\USER_PROGRAM.C"
 709  00E5  3400     R  	clr _b_tonggle_E3_in_mode_reset
 709  00E6  3C00     E  	sz ra.0
 709  00E7  3000     R  	set _b_tonggle_E3_in_mode_reset
 710  00E8              #line 710 "C:\Users\Huy Le\Documents\VSHOME\SONHA\IWH_SH_I2C\SH1051_PUMP\SH1051_BS84B08C_PUMP\USER_PROGRAM\USER_PROGRAM.C"
 710  00E8  3800     E  	snz ra.0
 710  00E9  2800     R  	jmp _L74
 712  00EA              #line 712 "C:\Users\Huy Le\Documents\VSHOME\SONHA\IWH_SH_I2C\SH1051_PUMP\SH1051_BS84B08C_PUMP\USER_PROGRAM\USER_PROGRAM.C"
 712  00EA  3214        	set [20].4
 713  00EB              #line 713 "C:\Users\Huy Le\Documents\VSHOME\SONHA\IWH_SH_I2C\SH1051_PUMP\SH1051_BS84B08C_PUMP\USER_PROGRAM\USER_PROGRAM.C"
 713  00EB  0F01        	mov a,1
 713  00EC  0080     E  	mov _setSeg12_2[0],a
 713  00ED  0F0E        	mov a,14
 713  00EE  2000     E  	call _setSeg12
 713  00EF  2800     R  	jmp _L105
 713  00F0              _L74:
 718  00F0              #line 718 "C:\Users\Huy Le\Documents\VSHOME\SONHA\IWH_SH_I2C\SH1051_PUMP\SH1051_BS84B08C_PUMP\USER_PROGRAM\USER_PROGRAM.C"
 718  00F0  3614        	clr [20].4
 719  00F1              #line 719 "C:\Users\Huy Le\Documents\VSHOME\SONHA\IWH_SH_I2C\SH1051_PUMP\SH1051_BS84B08C_PUMP\USER_PROGRAM\USER_PROGRAM.C"
 719  00F1  2000     E  	call _clearSeg12
 719  00F2              _L105:
"File: USER_PROGRAM.C  Assembler  Version HGASM0202      Page 16

 720  00F2              #line 720 "C:\Users\Huy Le\Documents\VSHOME\SONHA\IWH_SH_I2C\SH1051_PUMP\SH1051_BS84B08C_PUMP\USER_PROGRAM\USER_PROGRAM.C"
 720  00F2  2000     E  	call _update
 723  00F3              #line 723 "C:\Users\Huy Le\Documents\VSHOME\SONHA\IWH_SH_I2C\SH1051_PUMP\SH1051_BS84B08C_PUMP\USER_PROGRAM\USER_PROGRAM.C"
 723  00F3  3800     R  	snz _b_pump_status
 723  00F4  2800     R  	jmp _L76
 725  00F5              #line 725 "C:\Users\Huy Le\Documents\VSHOME\SONHA\IWH_SH_I2C\SH1051_PUMP\SH1051_BS84B08C_PUMP\USER_PROGRAM\USER_PROGRAM.C"
 725  00F5  3000     R  	set _s_tx_data[0].3
 726  00F6              #line 726 "C:\Users\Huy Le\Documents\VSHOME\SONHA\IWH_SH_I2C\SH1051_PUMP\SH1051_BS84B08C_PUMP\USER_PROGRAM\USER_PROGRAM.C"
 726  00F6  0F02        	mov a,2
 726  00F7  0080     R  	mov _CRC8_2[2],a
 726  00F8  0F00     R  	mov a,low offset _s_tx_data
 726  00F9  0080     R  	mov _CRC8_2[0],a
 726  00FA  0F00     R  	mov a,high offset _s_tx_data
 726  00FB  0080     R  	mov _CRC8_2[1],a
 726  00FC  2000     R  	call _CRC8
 726  00FD  0080     E  	mov ra,a
 726  00FE  0700     E  	mov a,ra
 726  00FF  0080     R  	mov _s_tx_data[2],a
 726  0100  2800     R  	jmp _L77
 726  0101              _L76:
 730  0101              #line 730 "C:\Users\Huy Le\Documents\VSHOME\SONHA\IWH_SH_I2C\SH1051_PUMP\SH1051_BS84B08C_PUMP\USER_PROGRAM\USER_PROGRAM.C"
 730  0101  2000     E  	call _clearLedPump
 731  0102              #line 731 "C:\Users\Huy Le\Documents\VSHOME\SONHA\IWH_SH_I2C\SH1051_PUMP\SH1051_BS84B08C_PUMP\USER_PROGRAM\USER_PROGRAM.C"
 731  0102  2000     E  	call _update
 731  0103              _L77:
 734  0103              #line 734 "C:\Users\Huy Le\Documents\VSHOME\SONHA\IWH_SH_I2C\SH1051_PUMP\SH1051_BS84B08C_PUMP\USER_PROGRAM\USER_PROGRAM.C"
 734  0103  2000     E  	call _clearLedELCB
 735  0104              #line 735 "C:\Users\Huy Le\Documents\VSHOME\SONHA\IWH_SH_I2C\SH1051_PUMP\SH1051_BS84B08C_PUMP\USER_PROGRAM\USER_PROGRAM.C"
 735  0104  2000     E  	call _update
 735  0105              _L108:
 737  0105              #line 737 "C:\Users\Huy Le\Documents\VSHOME\SONHA\IWH_SH_I2C\SH1051_PUMP\SH1051_BS84B08C_PUMP\USER_PROGRAM\USER_PROGRAM.C"
 737  0105  3000     R  	set _b_switch_temp
 738  0106              #line 738 "C:\Users\Huy Le\Documents\VSHOME\SONHA\IWH_SH_I2C\SH1051_PUMP\SH1051_BS84B08C_PUMP\USER_PROGRAM\USER_PROGRAM.C"
 738  0106  0F06        	mov a,6
 738  0107  0080     R  	mov _switch_temp_cnt[0],a
 739  0108              #line 739 "C:\Users\Huy Le\Documents\VSHOME\SONHA\IWH_SH_I2C\SH1051_PUMP\SH1051_BS84B08C_PUMP\USER_PROGRAM\USER_PROGRAM.C"
 739  0108  3400     R  	clr _bit_7seg_temp_tonggle
 740  0109              #line 740 "C:\Users\Huy Le\Documents\VSHOME\SONHA\IWH_SH_I2C\SH1051_PUMP\SH1051_BS84B08C_PUMP\USER_PROGRAM\USER_PROGRAM.C"
 740  0109  2000     E  	call _set_buzzer_on_forever
 740  010A  2800     R  	jmp _L45
 740  010B              _L73:
 743  010B              #line 743 "C:\Users\Huy Le\Documents\VSHOME\SONHA\IWH_SH_I2C\SH1051_PUMP\SH1051_BS84B08C_PUMP\USER_PROGRAM\USER_PROGRAM.C"
 743  010B  3800     R  	snz _machine_state[0].2
 743  010C  2800     R  	jmp _L78
 743  010D  1F00     E  	clr ra
 743  010E  3800     R  	snz _b_tonggle_E3_in_mode_reset
 743  010F  3000     E  	set ra.0
 746  0110              #line 746 "C:\Users\Huy Le\Documents\VSHOME\SONHA\IWH_SH_I2C\SH1051_PUMP\SH1051_BS84B08C_PUMP\USER_PROGRAM\USER_PROGRAM.C"
 746  0110  3400     R  	clr _b_tonggle_E3_in_mode_reset
 746  0111  3C00     E  	sz ra.0
 746  0112  3000     R  	set _b_tonggle_E3_in_mode_reset
 747  0113              #line 747 "C:\Users\Huy Le\Documents\VSHOME\SONHA\IWH_SH_I2C\SH1051_PUMP\SH1051_BS84B08C_PUMP\USER_PROGRAM\USER_PROGRAM.C"
 747  0113  3800     E  	snz ra.0
 747  0114  2800     R  	jmp _L84
 749  0115              #line 749 "C:\Users\Huy Le\Documents\VSHOME\SONHA\IWH_SH_I2C\SH1051_PUMP\SH1051_BS84B08C_PUMP\USER_PROGRAM\USER_PROGRAM.C"
 749  0115  0FC8        	mov a,-56
 749  0116  0080     E  	mov _set_buzzer_on_2[0],a
 749  0117  1F00     E  	clr _set_buzzer_on_2[1]
 749  0118  2000     E  	call _set_buzzer_on
 750  0119              #line 750 "C:\Users\Huy Le\Documents\VSHOME\SONHA\IWH_SH_I2C\SH1051_PUMP\SH1051_BS84B08C_PUMP\USER_PROGRAM\USER_PROGRAM.C"
"File: USER_PROGRAM.C  Assembler  Version HGASM0202      Page 17

 750  0119  3214        	set [20].4
 751  011A              #line 751 "C:\Users\Huy Le\Documents\VSHOME\SONHA\IWH_SH_I2C\SH1051_PUMP\SH1051_BS84B08C_PUMP\USER_PROGRAM\USER_PROGRAM.C"
 751  011A  0F03        	mov a,3
 751  011B  0080     E  	mov _setSeg12_2[0],a
 751  011C  2800     R  	jmp _L111
 751  011D              _L78:
 781  011D              #line 781 "C:\Users\Huy Le\Documents\VSHOME\SONHA\IWH_SH_I2C\SH1051_PUMP\SH1051_BS84B08C_PUMP\USER_PROGRAM\USER_PROGRAM.C"
 781  011D  3800     R  	snz _machine_state[0].1
 781  011E  2800     R  	jmp _L45
 781  011F  1F00     E  	clr ra
 781  0120  3800     R  	snz _b_tonggle_E3_in_mode_reset
 781  0121  3000     E  	set ra.0
 784  0122              #line 784 "C:\Users\Huy Le\Documents\VSHOME\SONHA\IWH_SH_I2C\SH1051_PUMP\SH1051_BS84B08C_PUMP\USER_PROGRAM\USER_PROGRAM.C"
 784  0122  3400     R  	clr _b_tonggle_E3_in_mode_reset
 784  0123  3C00     E  	sz ra.0
 784  0124  3000     R  	set _b_tonggle_E3_in_mode_reset
 785  0125              #line 785 "C:\Users\Huy Le\Documents\VSHOME\SONHA\IWH_SH_I2C\SH1051_PUMP\SH1051_BS84B08C_PUMP\USER_PROGRAM\USER_PROGRAM.C"
 785  0125  3800     E  	snz ra.0
 785  0126  2800     R  	jmp _L84
 787  0127              #line 787 "C:\Users\Huy Le\Documents\VSHOME\SONHA\IWH_SH_I2C\SH1051_PUMP\SH1051_BS84B08C_PUMP\USER_PROGRAM\USER_PROGRAM.C"
 787  0127  0FC8        	mov a,-56
 787  0128  0080     E  	mov _set_buzzer_on_2[0],a
 787  0129  1F00     E  	clr _set_buzzer_on_2[1]
 787  012A  2000     E  	call _set_buzzer_on
 788  012B              #line 788 "C:\Users\Huy Le\Documents\VSHOME\SONHA\IWH_SH_I2C\SH1051_PUMP\SH1051_BS84B08C_PUMP\USER_PROGRAM\USER_PROGRAM.C"
 788  012B  3214        	set [20].4
 789  012C              #line 789 "C:\Users\Huy Le\Documents\VSHOME\SONHA\IWH_SH_I2C\SH1051_PUMP\SH1051_BS84B08C_PUMP\USER_PROGRAM\USER_PROGRAM.C"
 789  012C  0F04        	mov a,4
 789  012D  0080     E  	mov _setSeg12_2[0],a
 789  012E              _L111:
 789  012E  0F0E        	mov a,14
 789  012F  2000     E  	call _setSeg12
 789  0130  2800     R  	jmp _L107
 789  0131              _L84:
 794  0131              #line 794 "C:\Users\Huy Le\Documents\VSHOME\SONHA\IWH_SH_I2C\SH1051_PUMP\SH1051_BS84B08C_PUMP\USER_PROGRAM\USER_PROGRAM.C"
 794  0131  3614        	clr [20].4
 795  0132              #line 795 "C:\Users\Huy Le\Documents\VSHOME\SONHA\IWH_SH_I2C\SH1051_PUMP\SH1051_BS84B08C_PUMP\USER_PROGRAM\USER_PROGRAM.C"
 795  0132  2000     E  	call _clearSeg12
 795  0133              _L107:
 796  0133              #line 796 "C:\Users\Huy Le\Documents\VSHOME\SONHA\IWH_SH_I2C\SH1051_PUMP\SH1051_BS84B08C_PUMP\USER_PROGRAM\USER_PROGRAM.C"
 796  0133  2000     E  	call _update
 799  0134              #line 799 "C:\Users\Huy Le\Documents\VSHOME\SONHA\IWH_SH_I2C\SH1051_PUMP\SH1051_BS84B08C_PUMP\USER_PROGRAM\USER_PROGRAM.C"
 799  0134  3800     R  	snz _b_pump_status
 799  0135  2800     R  	jmp _L86
 801  0136              #line 801 "C:\Users\Huy Le\Documents\VSHOME\SONHA\IWH_SH_I2C\SH1051_PUMP\SH1051_BS84B08C_PUMP\USER_PROGRAM\USER_PROGRAM.C"
 801  0136  3000     R  	set _s_tx_data[0].3
 802  0137              #line 802 "C:\Users\Huy Le\Documents\VSHOME\SONHA\IWH_SH_I2C\SH1051_PUMP\SH1051_BS84B08C_PUMP\USER_PROGRAM\USER_PROGRAM.C"
 802  0137  0F02        	mov a,2
 802  0138  0080     R  	mov _CRC8_2[2],a
 802  0139  0F00     R  	mov a,low offset _s_tx_data
 802  013A  0080     R  	mov _CRC8_2[0],a
 802  013B  0F00     R  	mov a,high offset _s_tx_data
 802  013C  0080     R  	mov _CRC8_2[1],a
 802  013D  2000     R  	call _CRC8
 802  013E  0080     E  	mov ra,a
 802  013F  0700     E  	mov a,ra
 802  0140  0080     R  	mov _s_tx_data[2],a
 802  0141  2800     R  	jmp _L87
 802  0142              _L86:
 806  0142              #line 806 "C:\Users\Huy Le\Documents\VSHOME\SONHA\IWH_SH_I2C\SH1051_PUMP\SH1051_BS84B08C_PUMP\USER_PROGRAM\USER_PROGRAM.C"
"File: USER_PROGRAM.C  Assembler  Version HGASM0202      Page 18

 806  0142  2000     E  	call _clearLedPump
 807  0143              #line 807 "C:\Users\Huy Le\Documents\VSHOME\SONHA\IWH_SH_I2C\SH1051_PUMP\SH1051_BS84B08C_PUMP\USER_PROGRAM\USER_PROGRAM.C"
 807  0143  2000     E  	call _update
 807  0144              _L87:
 809  0144              #line 809 "C:\Users\Huy Le\Documents\VSHOME\SONHA\IWH_SH_I2C\SH1051_PUMP\SH1051_BS84B08C_PUMP\USER_PROGRAM\USER_PROGRAM.C"
 809  0144  2000     E  	call _clearLedELCB
 810  0145              #line 810 "C:\Users\Huy Le\Documents\VSHOME\SONHA\IWH_SH_I2C\SH1051_PUMP\SH1051_BS84B08C_PUMP\USER_PROGRAM\USER_PROGRAM.C"
 810  0145  2000     E  	call _update
 811  0146              #line 811 "C:\Users\Huy Le\Documents\VSHOME\SONHA\IWH_SH_I2C\SH1051_PUMP\SH1051_BS84B08C_PUMP\USER_PROGRAM\USER_PROGRAM.C"
 811  0146  2000     E  	call _set_buzzer_off_forever
 812  0147              #line 812 "C:\Users\Huy Le\Documents\VSHOME\SONHA\IWH_SH_I2C\SH1051_PUMP\SH1051_BS84B08C_PUMP\USER_PROGRAM\USER_PROGRAM.C"
 812  0147  3000     R  	set _b_switch_temp
 813  0148              #line 813 "C:\Users\Huy Le\Documents\VSHOME\SONHA\IWH_SH_I2C\SH1051_PUMP\SH1051_BS84B08C_PUMP\USER_PROGRAM\USER_PROGRAM.C"
 813  0148  0F06        	mov a,6
 813  0149  0080     R  	mov _switch_temp_cnt[0],a
 814  014A              #line 814 "C:\Users\Huy Le\Documents\VSHOME\SONHA\IWH_SH_I2C\SH1051_PUMP\SH1051_BS84B08C_PUMP\USER_PROGRAM\USER_PROGRAM.C"
 814  014A  3400     R  	clr _bit_7seg_temp_tonggle
 814  014B              _L45:
 814  014B  0003        	ret
 814  014C              _mode_power_on_program endp
 814  014C              #line 814 "C:\Users\Huy Le\Documents\VSHOME\SONHA\IWH_SH_I2C\SH1051_PUMP\SH1051_BS84B08C_PUMP\USER_PROGRAM\USER_PROGRAM.C"
 814  014C              #pragma debug scope 1 1
 814  014C              public _mode_power_program
 814  014C              #pragma debug scope 11 1
 437  014C              #line 437 "C:\Users\Huy Le\Documents\VSHOME\SONHA\IWH_SH_I2C\SH1051_PUMP\SH1051_BS84B08C_PUMP\USER_PROGRAM\USER_PROGRAM.C"
 437  0000              _mode_power_program .section 'code'
 437  0000              _mode_power_program proc
 438  0000              #line 438 "C:\Users\Huy Le\Documents\VSHOME\SONHA\IWH_SH_I2C\SH1051_PUMP\SH1051_BS84B08C_PUMP\USER_PROGRAM\USER_PROGRAM.C"
 438  0000  3800     E  	snz _b_flag2msInPower
 438  0001  2800     R  	jmp _L113
 440  0002              #line 440 "C:\Users\Huy Le\Documents\VSHOME\SONHA\IWH_SH_I2C\SH1051_PUMP\SH1051_BS84B08C_PUMP\USER_PROGRAM\USER_PROGRAM.C"
 440  0002  3400     E  	clr _b_flag2msInPower
 441  0003              #line 441 "C:\Users\Huy Le\Documents\VSHOME\SONHA\IWH_SH_I2C\SH1051_PUMP\SH1051_BS84B08C_PUMP\USER_PROGRAM\USER_PROGRAM.C"
 441  0003  0700     R  	mov a,_deviceModePower[0]
 441  0004  0500     R  	or a,_deviceModePower[1]
 441  0005  3D0A        	sz z
 441  0006  2800     R  	jmp _L114
 441  0007  0700     R  	mov a,_deviceModePower[0]
 441  0008  0C01        	xor a,1
 441  0009  0500     R  	or a,_deviceModePower[1]
 441  000A  390A        	snz z
 441  000B  2800     R  	jmp _L113
 447  000C              #line 447 "C:\Users\Huy Le\Documents\VSHOME\SONHA\IWH_SH_I2C\SH1051_PUMP\SH1051_BS84B08C_PUMP\USER_PROGRAM\USER_PROGRAM.C"
 447  000C  2000     R  	call _mode_power_on_program
 448  000D              #line 448 "C:\Users\Huy Le\Documents\VSHOME\SONHA\IWH_SH_I2C\SH1051_PUMP\SH1051_BS84B08C_PUMP\USER_PROGRAM\USER_PROGRAM.C"
 448  000D  2800     R  	jmp _L113
 448  000E              _L114:
 444  000E              #line 444 "C:\Users\Huy Le\Documents\VSHOME\SONHA\IWH_SH_I2C\SH1051_PUMP\SH1051_BS84B08C_PUMP\USER_PROGRAM\USER_PROGRAM.C"
 444  000E  2000     R  	call _mode_power_off_program
 444  000F              _L113:
 453  000F              #line 453 "C:\Users\Huy Le\Documents\VSHOME\SONHA\IWH_SH_I2C\SH1051_PUMP\SH1051_BS84B08C_PUMP\USER_PROGRAM\USER_PROGRAM.C"
 453  000F  3800     E  	snz _b_flag10msInPower
 453  0010  2800     R  	jmp _L117
 455  0011              #line 455 "C:\Users\Huy Le\Documents\VSHOME\SONHA\IWH_SH_I2C\SH1051_PUMP\SH1051_BS84B08C_PUMP\USER_PROGRAM\USER_PROGRAM.C"
 455  0011  3400     E  	clr _b_flag10msInPower
 457  0012              #line 457 "C:\Users\Huy Le\Documents\VSHOME\SONHA\IWH_SH_I2C\SH1051_PUMP\SH1051_BS84B08C_PUMP\USER_PROGRAM\USER_PROGRAM.C"
 457  0012  3F94        	sz [20].7
 457  0013  2800     R  	jmp _L117
 458  0014              #line 458 "C:\Users\Huy Le\Documents\VSHOME\SONHA\IWH_SH_I2C\SH1051_PUMP\SH1051_BS84B08C_PUMP\USER_PROGRAM\USER_PROGRAM.C"
 458  0014  3C00     R  	sz _machine_state[0].3
"File: USER_PROGRAM.C  Assembler  Version HGASM0202      Page 19

 458  0015  2800     R  	jmp _L117
 463  0016              #line 463 "C:\Users\Huy Le\Documents\VSHOME\SONHA\IWH_SH_I2C\SH1051_PUMP\SH1051_BS84B08C_PUMP\USER_PROGRAM\USER_PROGRAM.C"
 463  0016  3000     R  	set _b_flag_button
 463  0017              _L117:
 468  0017              #line 468 "C:\Users\Huy Le\Documents\VSHOME\SONHA\IWH_SH_I2C\SH1051_PUMP\SH1051_BS84B08C_PUMP\USER_PROGRAM\USER_PROGRAM.C"
 468  0017  3800     E  	snz _b_flag100msInPower
 468  0018  2800     R  	jmp _L120
 470  0019              #line 470 "C:\Users\Huy Le\Documents\VSHOME\SONHA\IWH_SH_I2C\SH1051_PUMP\SH1051_BS84B08C_PUMP\USER_PROGRAM\USER_PROGRAM.C"
 470  0019  3400     E  	clr _b_flag100msInPower
 472  001A              #line 472 "C:\Users\Huy Le\Documents\VSHOME\SONHA\IWH_SH_I2C\SH1051_PUMP\SH1051_BS84B08C_PUMP\USER_PROGRAM\USER_PROGRAM.C"
 472  001A  3800     R  	snz _b_flag_button
 472  001B  2800     R  	jmp _L120
 473  001C              #line 473 "C:\Users\Huy Le\Documents\VSHOME\SONHA\IWH_SH_I2C\SH1051_PUMP\SH1051_BS84B08C_PUMP\USER_PROGRAM\USER_PROGRAM.C"
 473  001C  3B94        	snz [20].7
 473  001D  2800     R  	jmp _L120
 474  001E              #line 474 "C:\Users\Huy Le\Documents\VSHOME\SONHA\IWH_SH_I2C\SH1051_PUMP\SH1051_BS84B08C_PUMP\USER_PROGRAM\USER_PROGRAM.C"
 474  001E  0FC8        	mov a,-56
 474  001F  0080     E  	mov _set_buzzer_on_2[0],a
 474  0020  1F00     E  	clr _set_buzzer_on_2[1]
 474  0021  2000     E  	call _set_buzzer_on
 475  0022              #line 475 "C:\Users\Huy Le\Documents\VSHOME\SONHA\IWH_SH_I2C\SH1051_PUMP\SH1051_BS84B08C_PUMP\USER_PROGRAM\USER_PROGRAM.C"
 475  0022  0700     R  	mov a,_deviceModePower[0]
 475  0023  0080     E  	mov rb,a
 475  0024  0700     R  	mov a,_deviceModePower[1]
 475  0025  0080     E  	mov rc,a
 475  0026  0700     E  	mov a,rb
 475  0027  0500     E  	or a,rc
 475  0028  390A        	snz z
 475  0029  2800     R  	jmp _L122
 477  002A              #line 477 "C:\Users\Huy Le\Documents\VSHOME\SONHA\IWH_SH_I2C\SH1051_PUMP\SH1051_BS84B08C_PUMP\USER_PROGRAM\USER_PROGRAM.C"
 477  002A  0F01        	mov a,1
 477  002B  0080     R  	mov _deviceModePower[0],a
 477  002C  1F00     R  	clr _deviceModePower[1]
 478  002D              #line 478 "C:\Users\Huy Le\Documents\VSHOME\SONHA\IWH_SH_I2C\SH1051_PUMP\SH1051_BS84B08C_PUMP\USER_PROGRAM\USER_PROGRAM.C"
 478  002D  3214        	set [20].4
 479  002E              #line 479 "C:\Users\Huy Le\Documents\VSHOME\SONHA\IWH_SH_I2C\SH1051_PUMP\SH1051_BS84B08C_PUMP\USER_PROGRAM\USER_PROGRAM.C"
 479  002E  0F28        	mov a,40
 479  002F  0080     R  	mov _temp_set[0],a
 480  0030              #line 480 "C:\Users\Huy Le\Documents\VSHOME\SONHA\IWH_SH_I2C\SH1051_PUMP\SH1051_BS84B08C_PUMP\USER_PROGRAM\USER_PROGRAM.C"
 480  0030  0700     R  	mov a,_temp_set[0]
 480  0031  0080     R  	mov _s_tx_data[1],a
 481  0032              #line 481 "C:\Users\Huy Le\Documents\VSHOME\SONHA\IWH_SH_I2C\SH1051_PUMP\SH1051_BS84B08C_PUMP\USER_PROGRAM\USER_PROGRAM.C"
 481  0032  0F02        	mov a,2
 481  0033  0080     R  	mov _CRC8_2[2],a
 481  0034  0F00     R  	mov a,low offset _s_tx_data
 481  0035  0080     R  	mov _CRC8_2[0],a
 481  0036  0F00     R  	mov a,high offset _s_tx_data
 481  0037  0080     R  	mov _CRC8_2[1],a
 481  0038  2000     R  	call _CRC8
 481  0039  0080     E  	mov ra,a
 481  003A  0700     E  	mov a,ra
 481  003B  0080     R  	mov _s_tx_data[2],a
 482  003C              #line 482 "C:\Users\Huy Le\Documents\VSHOME\SONHA\IWH_SH_I2C\SH1051_PUMP\SH1051_BS84B08C_PUMP\USER_PROGRAM\USER_PROGRAM.C"
 482  003C  3000     R  	set _b_switch_temp
 483  003D              #line 483 "C:\Users\Huy Le\Documents\VSHOME\SONHA\IWH_SH_I2C\SH1051_PUMP\SH1051_BS84B08C_PUMP\USER_PROGRAM\USER_PROGRAM.C"
 483  003D  0F06        	mov a,6
 483  003E  0080     R  	mov _switch_temp_cnt[0],a
 484  003F              #line 484 "C:\Users\Huy Le\Documents\VSHOME\SONHA\IWH_SH_I2C\SH1051_PUMP\SH1051_BS84B08C_PUMP\USER_PROGRAM\USER_PROGRAM.C"
 484  003F  3400     R  	clr _bit_7seg_temp_tonggle
 484  0040  2800     R  	jmp _L123
"File: USER_PROGRAM.C  Assembler  Version HGASM0202      Page 20

 484  0041              _L122:
 486  0041              #line 486 "C:\Users\Huy Le\Documents\VSHOME\SONHA\IWH_SH_I2C\SH1051_PUMP\SH1051_BS84B08C_PUMP\USER_PROGRAM\USER_PROGRAM.C"
 486  0041  0700     E  	mov a,rb
 486  0042  0C01        	xor a,1
 486  0043  0500     E  	or a,rc
 486  0044  390A        	snz z
 486  0045  2800     R  	jmp _L123
 488  0046              #line 488 "C:\Users\Huy Le\Documents\VSHOME\SONHA\IWH_SH_I2C\SH1051_PUMP\SH1051_BS84B08C_PUMP\USER_PROGRAM\USER_PROGRAM.C"
 488  0046  1F00     R  	clr _deviceModePower[0]
 488  0047  1F00     R  	clr _deviceModePower[1]
 489  0048              #line 489 "C:\Users\Huy Le\Documents\VSHOME\SONHA\IWH_SH_I2C\SH1051_PUMP\SH1051_BS84B08C_PUMP\USER_PROGRAM\USER_PROGRAM.C"
 489  0048  3614        	clr [20].4
 490  0049              #line 490 "C:\Users\Huy Le\Documents\VSHOME\SONHA\IWH_SH_I2C\SH1051_PUMP\SH1051_BS84B08C_PUMP\USER_PROGRAM\USER_PROGRAM.C"
 490  0049  1F00     R  	clr _temp_set[0]
 491  004A              #line 491 "C:\Users\Huy Le\Documents\VSHOME\SONHA\IWH_SH_I2C\SH1051_PUMP\SH1051_BS84B08C_PUMP\USER_PROGRAM\USER_PROGRAM.C"
 491  004A  0700     R  	mov a,_temp_set[0]
 491  004B  0080     R  	mov _s_tx_data[1],a
 492  004C              #line 492 "C:\Users\Huy Le\Documents\VSHOME\SONHA\IWH_SH_I2C\SH1051_PUMP\SH1051_BS84B08C_PUMP\USER_PROGRAM\USER_PROGRAM.C"
 492  004C  0F02        	mov a,2
 492  004D  0080     R  	mov _CRC8_2[2],a
 492  004E  0F00     R  	mov a,low offset _s_tx_data
 492  004F  0080     R  	mov _CRC8_2[0],a
 492  0050  0F00     R  	mov a,high offset _s_tx_data
 492  0051  0080     R  	mov _CRC8_2[1],a
 492  0052  2000     R  	call _CRC8
 492  0053  0080     E  	mov ra,a
 492  0054  0700     E  	mov a,ra
 492  0055  0080     R  	mov _s_tx_data[2],a
 493  0056              #line 493 "C:\Users\Huy Le\Documents\VSHOME\SONHA\IWH_SH_I2C\SH1051_PUMP\SH1051_BS84B08C_PUMP\USER_PROGRAM\USER_PROGRAM.C"
 493  0056  3800     R  	snz _b_pump_status
 493  0057  2800     R  	jmp _L123
 495  0058              #line 495 "C:\Users\Huy Le\Documents\VSHOME\SONHA\IWH_SH_I2C\SH1051_PUMP\SH1051_BS84B08C_PUMP\USER_PROGRAM\USER_PROGRAM.C"
 495  0058  3000     R  	set _s_tx_data[0].3
 496  0059              #line 496 "C:\Users\Huy Le\Documents\VSHOME\SONHA\IWH_SH_I2C\SH1051_PUMP\SH1051_BS84B08C_PUMP\USER_PROGRAM\USER_PROGRAM.C"
 496  0059  0F02        	mov a,2
 496  005A  0080     R  	mov _CRC8_2[2],a
 496  005B  0F00     R  	mov a,low offset _s_tx_data
 496  005C  0080     R  	mov _CRC8_2[0],a
 496  005D  0F00     R  	mov a,high offset _s_tx_data
 496  005E  0080     R  	mov _CRC8_2[1],a
 496  005F  2000     R  	call _CRC8
 496  0060  0080     E  	mov ra,a
 496  0061  0700     E  	mov a,ra
 496  0062  0080     R  	mov _s_tx_data[2],a
 496  0063              _L123:
 500  0063              #line 500 "C:\Users\Huy Le\Documents\VSHOME\SONHA\IWH_SH_I2C\SH1051_PUMP\SH1051_BS84B08C_PUMP\USER_PROGRAM\USER_PROGRAM.C"
 500  0063  3400     R  	clr _b_flag_button
 500  0064              _L120:
 505  0064              #line 505 "C:\Users\Huy Le\Documents\VSHOME\SONHA\IWH_SH_I2C\SH1051_PUMP\SH1051_BS84B08C_PUMP\USER_PROGRAM\USER_PROGRAM.C"
 505  0064  3800     E  	snz _b_flag500msInPower
 505  0065  2800     R  	jmp _L112
 507  0066              #line 507 "C:\Users\Huy Le\Documents\VSHOME\SONHA\IWH_SH_I2C\SH1051_PUMP\SH1051_BS84B08C_PUMP\USER_PROGRAM\USER_PROGRAM.C"
 507  0066  3400     E  	clr _b_flag500msInPower
 507  0067              _L112:
 507  0067  0003        	ret
 507  0068              _mode_power_program endp
 507  0068              #line 507 "C:\Users\Huy Le\Documents\VSHOME\SONHA\IWH_SH_I2C\SH1051_PUMP\SH1051_BS84B08C_PUMP\USER_PROGRAM\USER_PROGRAM.C"
 507  0068              #pragma debug scope 1 1
 507  0068              public _USER_PROGRAM
 507  0068              #pragma debug scope 12 1
"File: USER_PROGRAM.C  Assembler  Version HGASM0202      Page 21

 117  0068              #line 117 "C:\Users\Huy Le\Documents\VSHOME\SONHA\IWH_SH_I2C\SH1051_PUMP\SH1051_BS84B08C_PUMP\USER_PROGRAM\USER_PROGRAM.C"
 117  0000              _USER_PROGRAM .section 'code'
 117  0000              _USER_PROGRAM proc
 117  0000  00              local _USER_PROGRAM_2 db 1 dup(?)	; 0,1
 118  0001              #line 118 "C:\Users\Huy Le\Documents\VSHOME\SONHA\IWH_SH_I2C\SH1051_PUMP\SH1051_BS84B08C_PUMP\USER_PROGRAM\USER_PROGRAM.C"
 118  0001              ;# 118 "C:\Users\Huy Le\Documents\VSHOME\SONHA\IWH_SH_I2C\SH1051_PUMP\SH1051_BS84B08C_PUMP\USER_PROGRAM\USER_PROGRAM.C" 1
 118  0000  0001        	clr wdt
 120  0001              #line 120 "C:\Users\Huy Le\Documents\VSHOME\SONHA\IWH_SH_I2C\SH1051_PUMP\SH1051_BS84B08C_PUMP\USER_PROGRAM\USER_PROGRAM.C"
 120  0001  3800     E  	snz _b_flag_i2c_receive
 120  0002  2800     R  	jmp _L131
 122  0003              #line 122 "C:\Users\Huy Le\Documents\VSHOME\SONHA\IWH_SH_I2C\SH1051_PUMP\SH1051_BS84B08C_PUMP\USER_PROGRAM\USER_PROGRAM.C"
 122  0003  0700     R  	mov a,_s_rx_data[2]
 122  0004  0080     R  	mov _USER_PROGRAM_2[0],a
 122  0005  0F02        	mov a,2
 122  0006  0080     R  	mov _CRC8_2[2],a
 122  0007  0F00     R  	mov a,low offset _s_rx_data
 122  0008  0080     R  	mov _CRC8_2[0],a
 122  0009  0F00     R  	mov a,high offset _s_rx_data
 122  000A  0080     R  	mov _CRC8_2[1],a
 122  000B  2000     R  	call _CRC8
 122  000C  0080     E  	mov ra,a
 122  000D  0700     R  	mov a,_USER_PROGRAM_2[0]
 122  000E  0200     E  	sub a,ra
 122  000F  390A        	snz z
 122  0010  2800     R  	jmp _L132
 124  0011              #line 124 "C:\Users\Huy Le\Documents\VSHOME\SONHA\IWH_SH_I2C\SH1051_PUMP\SH1051_BS84B08C_PUMP\USER_PROGRAM\USER_PROGRAM.C"
 124  0011  0700     R  	mov a,_s_rx_data[0]
 124  0012  0080     R  	mov _data_handle[0],a
 125  0013              #line 125 "C:\Users\Huy Le\Documents\VSHOME\SONHA\IWH_SH_I2C\SH1051_PUMP\SH1051_BS84B08C_PUMP\USER_PROGRAM\USER_PROGRAM.C"
 125  0013  0700     R  	mov a,_s_rx_data[1]
 125  0014  0080     R  	mov _data_handle[1],a
 126  0015              #line 126 "C:\Users\Huy Le\Documents\VSHOME\SONHA\IWH_SH_I2C\SH1051_PUMP\SH1051_BS84B08C_PUMP\USER_PROGRAM\USER_PROGRAM.C"
 126  0015  0700     R  	mov a,_data_handle[0]
 126  0016  0080     R  	mov _machine_state[0],a
 127  0017              #line 127 "C:\Users\Huy Le\Documents\VSHOME\SONHA\IWH_SH_I2C\SH1051_PUMP\SH1051_BS84B08C_PUMP\USER_PROGRAM\USER_PROGRAM.C"
 127  0017  0700     R  	mov a,_data_handle[1]
 127  0018  0080     R  	mov _u8_temp_fb[0],a
 127  0019              _L132:
 130  0019              #line 130 "C:\Users\Huy Le\Documents\VSHOME\SONHA\IWH_SH_I2C\SH1051_PUMP\SH1051_BS84B08C_PUMP\USER_PROGRAM\USER_PROGRAM.C"
 130  0019  3800     R  	snz _machine_state[0].3
 130  001A  2800     R  	jmp _L133
 132  001B              #line 132 "C:\Users\Huy Le\Documents\VSHOME\SONHA\IWH_SH_I2C\SH1051_PUMP\SH1051_BS84B08C_PUMP\USER_PROGRAM\USER_PROGRAM.C"
 132  001B  3800     R  	snz _s_tx_data[0].0
 132  001C  2800     R  	jmp _L134
 134  001D              #line 134 "C:\Users\Huy Le\Documents\VSHOME\SONHA\IWH_SH_I2C\SH1051_PUMP\SH1051_BS84B08C_PUMP\USER_PROGRAM\USER_PROGRAM.C"
 134  001D  3400     R  	clr _s_tx_data[0].0
 134  001E  2800     R  	jmp _L134
 134  001F              _L133:
 139  001F              #line 139 "C:\Users\Huy Le\Documents\VSHOME\SONHA\IWH_SH_I2C\SH1051_PUMP\SH1051_BS84B08C_PUMP\USER_PROGRAM\USER_PROGRAM.C"
 139  001F  3800     R  	snz _s_tx_data[0].1
 139  0020  2800     R  	jmp _L134
 141  0021              #line 141 "C:\Users\Huy Le\Documents\VSHOME\SONHA\IWH_SH_I2C\SH1051_PUMP\SH1051_BS84B08C_PUMP\USER_PROGRAM\USER_PROGRAM.C"
 141  0021  3400     R  	clr _s_tx_data[0].1
 141  0022              _L134:
 146  0022              #line 146 "C:\Users\Huy Le\Documents\VSHOME\SONHA\IWH_SH_I2C\SH1051_PUMP\SH1051_BS84B08C_PUMP\USER_PROGRAM\USER_PROGRAM.C"
 146  0022  3800     R  	snz _machine_state[0].6
 146  0023  2800     R  	jmp _L135
 147  0024              #line 147 "C:\Users\Huy Le\Documents\VSHOME\SONHA\IWH_SH_I2C\SH1051_PUMP\SH1051_BS84B08C_PUMP\USER_PROGRAM\USER_PROGRAM.C"
 147  0024  3000     R  	set _b_pump_status
 149  0025              #line 149 "C:\Users\Huy Le\Documents\VSHOME\SONHA\IWH_SH_I2C\SH1051_PUMP\SH1051_BS84B08C_PUMP\USER_PROGRAM\USER_PROGRAM.C"
"File: USER_PROGRAM.C  Assembler  Version HGASM0202      Page 22

 149  0025  3800     R  	snz _s_tx_data[0].2
 149  0026  2800     R  	jmp _L137
 150  0027              #line 150 "C:\Users\Huy Le\Documents\VSHOME\SONHA\IWH_SH_I2C\SH1051_PUMP\SH1051_BS84B08C_PUMP\USER_PROGRAM\USER_PROGRAM.C"
 150  0027  3400     R  	clr _s_tx_data[0].2
 150  0028  2800     R  	jmp _L137
 150  0029              _L135:
 153  0029              #line 153 "C:\Users\Huy Le\Documents\VSHOME\SONHA\IWH_SH_I2C\SH1051_PUMP\SH1051_BS84B08C_PUMP\USER_PROGRAM\USER_PROGRAM.C"
 153  0029  3400     R  	clr _b_pump_status
 155  002A              #line 155 "C:\Users\Huy Le\Documents\VSHOME\SONHA\IWH_SH_I2C\SH1051_PUMP\SH1051_BS84B08C_PUMP\USER_PROGRAM\USER_PROGRAM.C"
 155  002A  3800     R  	snz _s_tx_data[0].3
 155  002B  2800     R  	jmp _L137
 156  002C              #line 156 "C:\Users\Huy Le\Documents\VSHOME\SONHA\IWH_SH_I2C\SH1051_PUMP\SH1051_BS84B08C_PUMP\USER_PROGRAM\USER_PROGRAM.C"
 156  002C  3400     R  	clr _s_tx_data[0].3
 156  002D              _L137:
 161  002D              #line 161 "C:\Users\Huy Le\Documents\VSHOME\SONHA\IWH_SH_I2C\SH1051_PUMP\SH1051_BS84B08C_PUMP\USER_PROGRAM\USER_PROGRAM.C"
 161  002D  1480     R  	inc _time_check_test[0]
 162  002E              #line 162 "C:\Users\Huy Le\Documents\VSHOME\SONHA\IWH_SH_I2C\SH1051_PUMP\SH1051_BS84B08C_PUMP\USER_PROGRAM\USER_PROGRAM.C"
 162  002E  0F03        	mov a,3
 162  002F  0200     R  	sub a,_time_check_test[0]
 162  0030  3C0A        	sz c
 162  0031  2800     R  	jmp _L139
 164  0032              #line 164 "C:\Users\Huy Le\Documents\VSHOME\SONHA\IWH_SH_I2C\SH1051_PUMP\SH1051_BS84B08C_PUMP\USER_PROGRAM\USER_PROGRAM.C"
 164  0032  0F05        	mov a,5
 164  0033  0080     R  	mov _time_check_test[0],a
 164  0034              _L139:
 167  0034              #line 167 "C:\Users\Huy Le\Documents\VSHOME\SONHA\IWH_SH_I2C\SH1051_PUMP\SH1051_BS84B08C_PUMP\USER_PROGRAM\USER_PROGRAM.C"
 167  0034  1480     R  	inc _time_check_reset[0]
 168  0035              #line 168 "C:\Users\Huy Le\Documents\VSHOME\SONHA\IWH_SH_I2C\SH1051_PUMP\SH1051_BS84B08C_PUMP\USER_PROGRAM\USER_PROGRAM.C"
 168  0035  0F03        	mov a,3
 168  0036  0200     R  	sub a,_time_check_reset[0]
 168  0037  3C0A        	sz c
 168  0038  2800     R  	jmp _L140
 170  0039              #line 170 "C:\Users\Huy Le\Documents\VSHOME\SONHA\IWH_SH_I2C\SH1051_PUMP\SH1051_BS84B08C_PUMP\USER_PROGRAM\USER_PROGRAM.C"
 170  0039  0F05        	mov a,5
 170  003A  0080     R  	mov _time_check_reset[0],a
 170  003B              _L140:
 174  003B              #line 174 "C:\Users\Huy Le\Documents\VSHOME\SONHA\IWH_SH_I2C\SH1051_PUMP\SH1051_BS84B08C_PUMP\USER_PROGRAM\USER_PROGRAM.C"
 174  003B  3400     E  	clr _b_flag_i2c_receive
 175  003C              #line 175 "C:\Users\Huy Le\Documents\VSHOME\SONHA\IWH_SH_I2C\SH1051_PUMP\SH1051_BS84B08C_PUMP\USER_PROGRAM\USER_PROGRAM.C"
 175  003C  1F00     R  	clr _comm_timeout_cnt[0]
 175  003D              _L131:
 180  003D              #line 180 "C:\Users\Huy Le\Documents\VSHOME\SONHA\IWH_SH_I2C\SH1051_PUMP\SH1051_BS84B08C_PUMP\USER_PROGRAM\USER_PROGRAM.C"
 180  003D  3800     E  	snz _b_flag_2ms
 180  003E  2800     R  	jmp _L142
 182  003F              #line 182 "C:\Users\Huy Le\Documents\VSHOME\SONHA\IWH_SH_I2C\SH1051_PUMP\SH1051_BS84B08C_PUMP\USER_PROGRAM\USER_PROGRAM.C"
 182  003F  3400     E  	clr _b_flag_2ms
 185  0040              #line 185 "C:\Users\Huy Le\Documents\VSHOME\SONHA\IWH_SH_I2C\SH1051_PUMP\SH1051_BS84B08C_PUMP\USER_PROGRAM\USER_PROGRAM.C"
 185  0040  0F13        	mov a,19
 185  0041  0200     R  	sub a,_comm_timeout_cnt[0]
 185  0042  380A        	snz c
 185  0043  2800     R  	jmp _L142
 187  0044              #line 187 "C:\Users\Huy Le\Documents\VSHOME\SONHA\IWH_SH_I2C\SH1051_PUMP\SH1051_BS84B08C_PUMP\USER_PROGRAM\USER_PROGRAM.C"
 187  0044  0700     R  	mov a,_deviceMode[0]
 187  0045  0500     R  	or a,_deviceMode[1]
 187  0046  3D0A        	sz z
 187  0047  2800     R  	jmp _L144
 187  0048  0700     R  	mov a,_deviceMode[0]
 187  0049  0C01        	xor a,1
 187  004A  0500     R  	or a,_deviceMode[1]
 187  004B  3D0A        	sz z
"File: USER_PROGRAM.C  Assembler  Version HGASM0202      Page 23

 187  004C  2800     R  	jmp _L145
 187  004D  0700     R  	mov a,_deviceMode[0]
 187  004E  0C02        	xor a,2
 187  004F  0500     R  	or a,_deviceMode[1]
 187  0050  390A        	snz z
 187  0051  2800     R  	jmp _L142
 196  0052              #line 196 "C:\Users\Huy Le\Documents\VSHOME\SONHA\IWH_SH_I2C\SH1051_PUMP\SH1051_BS84B08C_PUMP\USER_PROGRAM\USER_PROGRAM.C"
 196  0052  2000     R  	call _mode_power_program
 197  0053              #line 197 "C:\Users\Huy Le\Documents\VSHOME\SONHA\IWH_SH_I2C\SH1051_PUMP\SH1051_BS84B08C_PUMP\USER_PROGRAM\USER_PROGRAM.C"
 197  0053  2800     R  	jmp _L142
 197  0054              _L144:
 190  0054              #line 190 "C:\Users\Huy Le\Documents\VSHOME\SONHA\IWH_SH_I2C\SH1051_PUMP\SH1051_BS84B08C_PUMP\USER_PROGRAM\USER_PROGRAM.C"
 190  0054  2000     R  	call _mode_start_program
 191  0055              #line 191 "C:\Users\Huy Le\Documents\VSHOME\SONHA\IWH_SH_I2C\SH1051_PUMP\SH1051_BS84B08C_PUMP\USER_PROGRAM\USER_PROGRAM.C"
 191  0055  2800     R  	jmp _L142
 191  0056              _L145:
 193  0056              #line 193 "C:\Users\Huy Le\Documents\VSHOME\SONHA\IWH_SH_I2C\SH1051_PUMP\SH1051_BS84B08C_PUMP\USER_PROGRAM\USER_PROGRAM.C"
 193  0056  2000     R  	call _mode_test_program
 193  0057              _L142:
 205  0057              #line 205 "C:\Users\Huy Le\Documents\VSHOME\SONHA\IWH_SH_I2C\SH1051_PUMP\SH1051_BS84B08C_PUMP\USER_PROGRAM\USER_PROGRAM.C"
 205  0057  3800     E  	snz _b_flag_10ms
 205  0058  2800     R  	jmp _L148
 207  0059              #line 207 "C:\Users\Huy Le\Documents\VSHOME\SONHA\IWH_SH_I2C\SH1051_PUMP\SH1051_BS84B08C_PUMP\USER_PROGRAM\USER_PROGRAM.C"
 207  0059  3400     E  	clr _b_flag_10ms
 210  005A              #line 210 "C:\Users\Huy Le\Documents\VSHOME\SONHA\IWH_SH_I2C\SH1051_PUMP\SH1051_BS84B08C_PUMP\USER_PROGRAM\USER_PROGRAM.C"
 210  005A  0700     R  	mov a,_g_pressBt[0]
 210  005B  0500     R  	or a,_g_pressBt[1]
 210  005C  390A        	snz z
 210  005D  2800     R  	jmp _L148
 212  005E              #line 212 "C:\Users\Huy Le\Documents\VSHOME\SONHA\IWH_SH_I2C\SH1051_PUMP\SH1051_BS84B08C_PUMP\USER_PROGRAM\USER_PROGRAM.C"
 212  005E  2000     E  	call _button_detect_press
 212  005F  0700     E  	mov a,ra
 212  0060  0C01        	xor a,1
 212  0061  0500     E  	or a,rb
 212  0062  3D0A        	sz z
 212  0063  2800     R  	jmp _L150
 212  0064  0700     E  	mov a,ra
 212  0065  0C02        	xor a,2
 212  0066  0500     E  	or a,rb
 212  0067  3D0A        	sz z
 212  0068  2800     R  	jmp _L151
 212  0069  0700     E  	mov a,ra
 212  006A  0C03        	xor a,3
 212  006B  0500     E  	or a,rb
 212  006C  390A        	snz z
 212  006D  2800     R  	jmp _L148
 212  006E  2800     R  	jmp _L173
 212  006F              _L150:
 217  006F              #line 217 "C:\Users\Huy Le\Documents\VSHOME\SONHA\IWH_SH_I2C\SH1051_PUMP\SH1051_BS84B08C_PUMP\USER_PROGRAM\USER_PROGRAM.C"
 217  006F  3000     R  	set _s_tx_data[0].0
 218  0070              #line 218 "C:\Users\Huy Le\Documents\VSHOME\SONHA\IWH_SH_I2C\SH1051_PUMP\SH1051_BS84B08C_PUMP\USER_PROGRAM\USER_PROGRAM.C"
 218  0070  0F02        	mov a,2
 218  0071  0080     R  	mov _CRC8_2[2],a
 218  0072  0F00     R  	mov a,low offset _s_tx_data
 218  0073  0080     R  	mov _CRC8_2[0],a
 218  0074  0F00     R  	mov a,high offset _s_tx_data
 218  0075  0080     R  	mov _CRC8_2[1],a
 218  0076  2000     R  	call _CRC8
 218  0077  0080     E  	mov ra,a
 218  0078  0700     E  	mov a,ra
"File: USER_PROGRAM.C  Assembler  Version HGASM0202      Page 24

 218  0079  0080     R  	mov _s_tx_data[2],a
 219  007A              #line 219 "C:\Users\Huy Le\Documents\VSHOME\SONHA\IWH_SH_I2C\SH1051_PUMP\SH1051_BS84B08C_PUMP\USER_PROGRAM\USER_PROGRAM.C"
 219  007A  0F64        	mov a,100
 219  007B  0080     E  	mov _set_buzzer_on_2[0],a
 219  007C  1F00     E  	clr _set_buzzer_on_2[1]
 219  007D  2000     E  	call _set_buzzer_on
 220  007E              #line 220 "C:\Users\Huy Le\Documents\VSHOME\SONHA\IWH_SH_I2C\SH1051_PUMP\SH1051_BS84B08C_PUMP\USER_PROGRAM\USER_PROGRAM.C"
 220  007E  0F01        	mov a,1
 220  007F  0080     R  	mov _deviceMode[0],a
 220  0080  1F00     R  	clr _deviceMode[1]
 221  0081              #line 221 "C:\Users\Huy Le\Documents\VSHOME\SONHA\IWH_SH_I2C\SH1051_PUMP\SH1051_BS84B08C_PUMP\USER_PROGRAM\USER_PROGRAM.C"
 221  0081  3400     R  	clr _b_tonggle_E2_in_mode_test
 224  0082              #line 224 "C:\Users\Huy Le\Documents\VSHOME\SONHA\IWH_SH_I2C\SH1051_PUMP\SH1051_BS84B08C_PUMP\USER_PROGRAM\USER_PROGRAM.C"
 224  0082  1F00     R  	clr _time_check_test[0]
 226  0083              #line 226 "C:\Users\Huy Le\Documents\VSHOME\SONHA\IWH_SH_I2C\SH1051_PUMP\SH1051_BS84B08C_PUMP\USER_PROGRAM\USER_PROGRAM.C"
 226  0083  2800     R  	jmp _L148
 226  0084              _L151:
 229  0084              #line 229 "C:\Users\Huy Le\Documents\VSHOME\SONHA\IWH_SH_I2C\SH1051_PUMP\SH1051_BS84B08C_PUMP\USER_PROGRAM\USER_PROGRAM.C"
 229  0084  3000     R  	set _s_tx_data[0].1
 230  0085              #line 230 "C:\Users\Huy Le\Documents\VSHOME\SONHA\IWH_SH_I2C\SH1051_PUMP\SH1051_BS84B08C_PUMP\USER_PROGRAM\USER_PROGRAM.C"
 230  0085  0F02        	mov a,2
 230  0086  0080     R  	mov _CRC8_2[2],a
 230  0087  0F00     R  	mov a,low offset _s_tx_data
 230  0088  0080     R  	mov _CRC8_2[0],a
 230  0089  0F00     R  	mov a,high offset _s_tx_data
 230  008A  0080     R  	mov _CRC8_2[1],a
 230  008B  2000     R  	call _CRC8
 230  008C  0080     E  	mov ra,a
 230  008D  0700     E  	mov a,ra
 230  008E  0080     R  	mov _s_tx_data[2],a
 231  008F              #line 231 "C:\Users\Huy Le\Documents\VSHOME\SONHA\IWH_SH_I2C\SH1051_PUMP\SH1051_BS84B08C_PUMP\USER_PROGRAM\USER_PROGRAM.C"
 231  008F  0F64        	mov a,100
 231  0090  0080     E  	mov _set_buzzer_on_2[0],a
 231  0091  1F00     E  	clr _set_buzzer_on_2[1]
 231  0092  2000     E  	call _set_buzzer_on
 232  0093              #line 232 "C:\Users\Huy Le\Documents\VSHOME\SONHA\IWH_SH_I2C\SH1051_PUMP\SH1051_BS84B08C_PUMP\USER_PROGRAM\USER_PROGRAM.C"
 232  0093  0F02        	mov a,2
 232  0094  0080     R  	mov _deviceMode[0],a
 232  0095  1F00     R  	clr _deviceMode[1]
 233  0096              #line 233 "C:\Users\Huy Le\Documents\VSHOME\SONHA\IWH_SH_I2C\SH1051_PUMP\SH1051_BS84B08C_PUMP\USER_PROGRAM\USER_PROGRAM.C"
 233  0096  3400     R  	clr _b_tonggle_E3_in_mode_reset
 236  0097              #line 236 "C:\Users\Huy Le\Documents\VSHOME\SONHA\IWH_SH_I2C\SH1051_PUMP\SH1051_BS84B08C_PUMP\USER_PROGRAM\USER_PROGRAM.C"
 236  0097  1F00     R  	clr _time_check_reset[0]
 238  0098              #line 238 "C:\Users\Huy Le\Documents\VSHOME\SONHA\IWH_SH_I2C\SH1051_PUMP\SH1051_BS84B08C_PUMP\USER_PROGRAM\USER_PROGRAM.C"
 238  0098  2800     R  	jmp _L148
 238  0099              _L173:
 241  0099              #line 241 "C:\Users\Huy Le\Documents\VSHOME\SONHA\IWH_SH_I2C\SH1051_PUMP\SH1051_BS84B08C_PUMP\USER_PROGRAM\USER_PROGRAM.C"
 241  0099  0700     R  	mov a,_deviceMode[0]
 241  009A  0C02        	xor a,2
 241  009B  0500     R  	or a,_deviceMode[1]
 241  009C  390A        	snz z
 241  009D  2800     R  	jmp _L153
 243  009E              #line 243 "C:\Users\Huy Le\Documents\VSHOME\SONHA\IWH_SH_I2C\SH1051_PUMP\SH1051_BS84B08C_PUMP\USER_PROGRAM\USER_PROGRAM.C"
 243  009E  0700     R  	mov a,_deviceModePower[0]
 243  009F  0C01        	xor a,1
 243  00A0  0500     R  	or a,_deviceModePower[1]
 243  00A1  390A        	snz z
 243  00A2  2800     R  	jmp _L153
 245  00A3              #line 245 "C:\Users\Huy Le\Documents\VSHOME\SONHA\IWH_SH_I2C\SH1051_PUMP\SH1051_BS84B08C_PUMP\USER_PROGRAM\USER_PROGRAM.C"
 245  00A3  1080     R  	sz _machine_state[0]
"File: USER_PROGRAM.C  Assembler  Version HGASM0202      Page 25

 245  00A4  2800     R  	jmp _LI12
 245  00A5  2800     R  	jmp _L154
 245  00A6              _LI12:
 245  00A6  0700     R  	mov a,_machine_state[0]
 245  00A7  0A40        	sub a,64
 245  00A8  390A        	snz z
 245  00A9  2800     R  	jmp _L153
 245  00AA              _L154:
 248  00AA              #line 248 "C:\Users\Huy Le\Documents\VSHOME\SONHA\IWH_SH_I2C\SH1051_PUMP\SH1051_BS84B08C_PUMP\USER_PROGRAM\USER_PROGRAM.C"
 248  00AA  3C00     R  	sz _b_pump_status
 248  00AB  2800     R  	jmp _L155
 250  00AC              #line 250 "C:\Users\Huy Le\Documents\VSHOME\SONHA\IWH_SH_I2C\SH1051_PUMP\SH1051_BS84B08C_PUMP\USER_PROGRAM\USER_PROGRAM.C"
 250  00AC  3000     R  	set _s_tx_data[0].2
 250  00AD  2800     R  	jmp _L172
 250  00AE              _L155:
 254  00AE              #line 254 "C:\Users\Huy Le\Documents\VSHOME\SONHA\IWH_SH_I2C\SH1051_PUMP\SH1051_BS84B08C_PUMP\USER_PROGRAM\USER_PROGRAM.C"
 254  00AE  3000     R  	set _s_tx_data[0].3
 254  00AF              _L172:
 255  00AF              #line 255 "C:\Users\Huy Le\Documents\VSHOME\SONHA\IWH_SH_I2C\SH1051_PUMP\SH1051_BS84B08C_PUMP\USER_PROGRAM\USER_PROGRAM.C"
 255  00AF  0F02        	mov a,2
 255  00B0  0080     R  	mov _CRC8_2[2],a
 255  00B1  0F00     R  	mov a,low offset _s_tx_data
 255  00B2  0080     R  	mov _CRC8_2[0],a
 255  00B3  0F00     R  	mov a,high offset _s_tx_data
 255  00B4  0080     R  	mov _CRC8_2[1],a
 255  00B5  2000     R  	call _CRC8
 255  00B6  0080     E  	mov ra,a
 255  00B7  0700     E  	mov a,ra
 255  00B8  0080     R  	mov _s_tx_data[2],a
 255  00B9              _L153:
 261  00B9              #line 261 "C:\Users\Huy Le\Documents\VSHOME\SONHA\IWH_SH_I2C\SH1051_PUMP\SH1051_BS84B08C_PUMP\USER_PROGRAM\USER_PROGRAM.C"
 261  00B9  0F64        	mov a,100
 261  00BA  0080     E  	mov _set_buzzer_on_2[0],a
 261  00BB  1F00     E  	clr _set_buzzer_on_2[1]
 261  00BC  2000     E  	call _set_buzzer_on
 261  00BD              _L148:
 267  00BD              #line 267 "C:\Users\Huy Le\Documents\VSHOME\SONHA\IWH_SH_I2C\SH1051_PUMP\SH1051_BS84B08C_PUMP\USER_PROGRAM\USER_PROGRAM.C"
 267  00BD  3800     E  	snz _b_flag_100ms
 267  00BE  2800     R  	jmp _L157
 269  00BF              #line 269 "C:\Users\Huy Le\Documents\VSHOME\SONHA\IWH_SH_I2C\SH1051_PUMP\SH1051_BS84B08C_PUMP\USER_PROGRAM\USER_PROGRAM.C"
 269  00BF  3400     E  	clr _b_flag_100ms
 271  00C0              #line 271 "C:\Users\Huy Le\Documents\VSHOME\SONHA\IWH_SH_I2C\SH1051_PUMP\SH1051_BS84B08C_PUMP\USER_PROGRAM\USER_PROGRAM.C"
 271  00C0  2000     E  	call _button_detect_release
 271  00C1  0700     E  	mov a,ra
 271  00C2  0080     R  	mov _g_pressBt[0],a
 271  00C3  0700     E  	mov a,rb
 271  00C4  0080     R  	mov _g_pressBt[1],a
 273  00C5              #line 273 "C:\Users\Huy Le\Documents\VSHOME\SONHA\IWH_SH_I2C\SH1051_PUMP\SH1051_BS84B08C_PUMP\USER_PROGRAM\USER_PROGRAM.C"
 273  00C5  1480     R  	inc _comm_timeout_cnt[0]
 274  00C6              #line 274 "C:\Users\Huy Le\Documents\VSHOME\SONHA\IWH_SH_I2C\SH1051_PUMP\SH1051_BS84B08C_PUMP\USER_PROGRAM\USER_PROGRAM.C"
 274  00C6  0F13        	mov a,19
 274  00C7  0200     R  	sub a,_comm_timeout_cnt[0]
 274  00C8  3C0A        	sz c
 274  00C9  2800     R  	jmp _L157
 280  00CA              #line 280 "C:\Users\Huy Le\Documents\VSHOME\SONHA\IWH_SH_I2C\SH1051_PUMP\SH1051_BS84B08C_PUMP\USER_PROGRAM\USER_PROGRAM.C"
 280  00CA  1F00     E  	clr _setSeg12_2[0]
 280  00CB  0F0E        	mov a,14
 280  00CC  2000     E  	call _setSeg12
 281  00CD              #line 281 "C:\Users\Huy Le\Documents\VSHOME\SONHA\IWH_SH_I2C\SH1051_PUMP\SH1051_BS84B08C_PUMP\USER_PROGRAM\USER_PROGRAM.C"
 281  00CD  2000     E  	call _update
"File: USER_PROGRAM.C  Assembler  Version HGASM0202      Page 26

 281  00CE              _L157:
 285  00CE              #line 285 "C:\Users\Huy Le\Documents\VSHOME\SONHA\IWH_SH_I2C\SH1051_PUMP\SH1051_BS84B08C_PUMP\USER_PROGRAM\USER_PROGRAM.C"
 285  00CE  3800     E  	snz _b_flag_500ms
 285  00CF  2800     R  	jmp _L130
 287  00D0              #line 287 "C:\Users\Huy Le\Documents\VSHOME\SONHA\IWH_SH_I2C\SH1051_PUMP\SH1051_BS84B08C_PUMP\USER_PROGRAM\USER_PROGRAM.C"
 287  00D0  3400     E  	clr _b_flag_500ms
 287  00D1              _L130:
 287  00D1  0003        	ret
 287  00D2              _USER_PROGRAM endp
 287  00D2              #line 287 "C:\Users\Huy Le\Documents\VSHOME\SONHA\IWH_SH_I2C\SH1051_PUMP\SH1051_BS84B08C_PUMP\USER_PROGRAM\USER_PROGRAM.C"
 287  00D2              #pragma debug scope 1 1
  70  00D2              #line 70 "C:\Users\Huy Le\Documents\VSHOME\SONHA\IWH_SH_I2C\SH1051_PUMP\SH1051_BS84B08C_PUMP\USER_PROGRAM\USER_PROGRAM.C"
  70  00D2              public _g_pressBt
  70  0000              @HCCINIT0 .section 'data'
  70  0000  0002[       _g_pressBt	db 2 dup(0)
            00
            ]
  70  0002              #pragma debug variable 12 1 _g_pressBt "g_pressBt"
  70  0002              
  70  0000              @HCCINIT .section 'data'
  68  0000              #line 68 "C:\Users\Huy Le\Documents\VSHOME\SONHA\IWH_SH_I2C\SH1051_PUMP\SH1051_BS84B08C_PUMP\USER_PROGRAM\USER_PROGRAM.C"
  68  0000              public _bit_mode_power_on_normal
  68  0000              @BITDATASEC .section 'data'
  68  0000  00          _bit_mode_power_on_normal	dbit 0
  68  0001              #pragma debug variable 2 1 _bit_mode_power_on_normal "bit_mode_power_on_normal"
  68  0001              
  68  0000              @HCCINIT .section 'data'
  68  0000              public _deviceModePower
  68  0000              @HCCINIT	.section 'data'
  66  0000              #line 66 "C:\Users\Huy Le\Documents\VSHOME\SONHA\IWH_SH_I2C\SH1051_PUMP\SH1051_BS84B08C_PUMP\USER_PROGRAM\USER_PROGRAM.C"
  66  0000              @HCCINIT .section 'data'
  66  0000              _deviceModePower label byte
  66  0000              #pragma debug variable 12 1 _deviceModePower "deviceModePower"
  66  0000              	db 0
  66  0000              @ROMDATA_BASE .section inpage 'code'
  66  0000              	db 0
  66  0001              @HCCINIT .section 'data'
  66  0001              	db 0
  66  0001              @ROMDATA_BASE .section inpage 'code'
  66  0001              	db 0
  66  0002              @HCCINIT .section 'data'
  66  0002              public _deviceMode
  65  0002              #line 65 "C:\Users\Huy Le\Documents\VSHOME\SONHA\IWH_SH_I2C\SH1051_PUMP\SH1051_BS84B08C_PUMP\USER_PROGRAM\USER_PROGRAM.C"
  65  0002              @HCCINIT .section 'data'
  65  0002              _deviceMode label byte
  65  0002              #pragma debug variable 12 1 _deviceMode "deviceMode"
  65  0002              	db 0
  65  0001              @ROMDATA_BASE .section inpage 'code'
  65  0001              	db 0
  65  0003              @HCCINIT .section 'data'
  65  0003              	db 0
  65  0002              @ROMDATA_BASE .section inpage 'code'
  65  0002              	db 0
  65  0004              @HCCINIT .section 'data'
  63  0004              #line 63 "C:\Users\Huy Le\Documents\VSHOME\SONHA\IWH_SH_I2C\SH1051_PUMP\SH1051_BS84B08C_PUMP\USER_PROGRAM\USER_PROGRAM.C"
  63  0004              public _b_pump_status
  63  0001              @BITDATASEC .section 'data'
  63  0000              _b_pump_status	dbit 0
  63  0001              #pragma debug variable 2 1 _b_pump_status "b_pump_status"
  63  0001              
"File: USER_PROGRAM.C  Assembler  Version HGASM0202      Page 27

  63  0004              @HCCINIT .section 'data'
  62  0004              #line 62 "C:\Users\Huy Le\Documents\VSHOME\SONHA\IWH_SH_I2C\SH1051_PUMP\SH1051_BS84B08C_PUMP\USER_PROGRAM\USER_PROGRAM.C"
  62  0004              public _bit_7seg_E2_tonggle
  62  0001              @BITDATASEC .section 'data'
  62  0000              _bit_7seg_E2_tonggle	dbit 0
  62  0001              #pragma debug variable 2 1 _bit_7seg_E2_tonggle "bit_7seg_E2_tonggle"
  62  0001              
  62  0004              @HCCINIT .section 'data'
  60  0004              #line 60 "C:\Users\Huy Le\Documents\VSHOME\SONHA\IWH_SH_I2C\SH1051_PUMP\SH1051_BS84B08C_PUMP\USER_PROGRAM\USER_PROGRAM.C"
  60  0004              public _time_check_reset
  60  0002              @HCCINIT0 .section 'data'
  60  0002              _time_check_reset	db 0
  60  0003              #pragma debug variable 8 1 _time_check_reset "time_check_reset"
  60  0003              
  60  0004              @HCCINIT .section 'data'
  59  0004              #line 59 "C:\Users\Huy Le\Documents\VSHOME\SONHA\IWH_SH_I2C\SH1051_PUMP\SH1051_BS84B08C_PUMP\USER_PROGRAM\USER_PROGRAM.C"
  59  0004              public _time_check_test
  59  0003              @HCCINIT0 .section 'data'
  59  0003              _time_check_test	db 0
  59  0004              #pragma debug variable 8 1 _time_check_test "time_check_test"
  59  0004              
  59  0004              @HCCINIT .section 'data'
  57  0004              #line 57 "C:\Users\Huy Le\Documents\VSHOME\SONHA\IWH_SH_I2C\SH1051_PUMP\SH1051_BS84B08C_PUMP\USER_PROGRAM\USER_PROGRAM.C"
  57  0004              public _leg7seg_error_check
  57  0004              @HCCINIT0 .section 'data'
  57  0004              _leg7seg_error_check	db 0
  57  0005              #pragma debug variable 8 1 _leg7seg_error_check "leg7seg_error_check"
  57  0005              
  57  0004              @HCCINIT .section 'data'
  56  0004              #line 56 "C:\Users\Huy Le\Documents\VSHOME\SONHA\IWH_SH_I2C\SH1051_PUMP\SH1051_BS84B08C_PUMP\USER_PROGRAM\USER_PROGRAM.C"
  56  0004              public _bit_7seg_temp_tonggle
  56  0001              @BITDATASEC .section 'data'
  56  0000              _bit_7seg_temp_tonggle	dbit 0
  56  0001              #pragma debug variable 2 1 _bit_7seg_temp_tonggle "bit_7seg_temp_tonggle"
  56  0001              
  56  0004              @HCCINIT .section 'data'
  55  0004              #line 55 "C:\Users\Huy Le\Documents\VSHOME\SONHA\IWH_SH_I2C\SH1051_PUMP\SH1051_BS84B08C_PUMP\USER_PROGRAM\USER_PROGRAM.C"
  55  0004              public _switch_temp_cnt
  55  0005              @HCCINIT0 .section 'data'
  55  0005              _switch_temp_cnt	db 0
  55  0006              #pragma debug variable 8 1 _switch_temp_cnt "switch_temp_cnt"
  55  0006              
  55  0004              @HCCINIT .section 'data'
  54  0004              #line 54 "C:\Users\Huy Le\Documents\VSHOME\SONHA\IWH_SH_I2C\SH1051_PUMP\SH1051_BS84B08C_PUMP\USER_PROGRAM\USER_PROGRAM.C"
  54  0004              public _b_switch_temp
  54  0001              @BITDATASEC .section 'data'
  54  0000              _b_switch_temp	dbit 0
  54  0001              #pragma debug variable 2 1 _b_switch_temp "b_switch_temp"
  54  0001              
  54  0004              @HCCINIT .section 'data'
  52  0004              #line 52 "C:\Users\Huy Le\Documents\VSHOME\SONHA\IWH_SH_I2C\SH1051_PUMP\SH1051_BS84B08C_PUMP\USER_PROGRAM\USER_PROGRAM.C"
  52  0004              public _u8_temp_fb
  52  0006              @HCCINIT0 .section 'data'
  52  0006              _u8_temp_fb	db 0
  52  0007              #pragma debug variable 8 1 _u8_temp_fb "u8_temp_fb"
  52  0007              
  52  0004              @HCCINIT .section 'data'
  51  0004              #line 51 "C:\Users\Huy Le\Documents\VSHOME\SONHA\IWH_SH_I2C\SH1051_PUMP\SH1051_BS84B08C_PUMP\USER_PROGRAM\USER_PROGRAM.C"
  51  0004              public _flag_button
  51  0007              @HCCINIT0 .section 'data'
"File: USER_PROGRAM.C  Assembler  Version HGASM0202      Page 28

  51  0007              _flag_button	db 0
  51  0008              #pragma debug variable 8 1 _flag_button "flag_button"
  51  0008              
  51  0004              @HCCINIT .section 'data'
  50  0004              #line 50 "C:\Users\Huy Le\Documents\VSHOME\SONHA\IWH_SH_I2C\SH1051_PUMP\SH1051_BS84B08C_PUMP\USER_PROGRAM\USER_PROGRAM.C"
  50  0004              public _buff_dem
  50  0008              @HCCINIT0 .section 'data'
  50  0008              _buff_dem	db 0
  50  0009              #pragma debug variable 8 1 _buff_dem "buff_dem"
  50  0009              
  50  0004              @HCCINIT .section 'data'
  49  0004              #line 49 "C:\Users\Huy Le\Documents\VSHOME\SONHA\IWH_SH_I2C\SH1051_PUMP\SH1051_BS84B08C_PUMP\USER_PROGRAM\USER_PROGRAM.C"
  49  0004              public _temp_set
  49  0009              @HCCINIT0 .section 'data'
  49  0009              _temp_set	db 0
  49  000A              #pragma debug variable 8 1 _temp_set "temp_set"
  49  000A              
  49  0004              @HCCINIT .section 'data'
  48  0004              #line 48 "C:\Users\Huy Le\Documents\VSHOME\SONHA\IWH_SH_I2C\SH1051_PUMP\SH1051_BS84B08C_PUMP\USER_PROGRAM\USER_PROGRAM.C"
  48  0004              public _pulse_pre
  48  000A              @HCCINIT0 .section 'data'
  48  000A              _pulse_pre	db 0
  48  000B              #pragma debug variable 8 1 _pulse_pre "pulse_pre"
  48  000B              
  48  0004              @HCCINIT .section 'data'
  47  0004              #line 47 "C:\Users\Huy Le\Documents\VSHOME\SONHA\IWH_SH_I2C\SH1051_PUMP\SH1051_BS84B08C_PUMP\USER_PROGRAM\USER_PROGRAM.C"
  47  0004              public _pulse_cur
  47  000B              @HCCINIT0 .section 'data'
  47  000B              _pulse_cur	db 0
  47  000C              #pragma debug variable 8 1 _pulse_cur "pulse_cur"
  47  000C              
  47  0004              @HCCINIT .section 'data'
  45  0004              #line 45 "C:\Users\Huy Le\Documents\VSHOME\SONHA\IWH_SH_I2C\SH1051_PUMP\SH1051_BS84B08C_PUMP\USER_PROGRAM\USER_PROGRAM.C"
  45  0004              public _b_flag_pump
  45  0001              @BITDATASEC .section 'data'
  45  0000              _b_flag_pump	dbit 0
  45  0001              #pragma debug variable 2 1 _b_flag_pump "b_flag_pump"
  45  0001              
  45  0004              @HCCINIT .section 'data'
  44  0004              #line 44 "C:\Users\Huy Le\Documents\VSHOME\SONHA\IWH_SH_I2C\SH1051_PUMP\SH1051_BS84B08C_PUMP\USER_PROGRAM\USER_PROGRAM.C"
  44  0004              public _b_flag_button
  44  0001              @BITDATASEC .section 'data'
  44  0000              _b_flag_button	dbit 0
  44  0001              #pragma debug variable 2 1 _b_flag_button "b_flag_button"
  44  0001              
  44  0004              @HCCINIT .section 'data'
  43  0004              #line 43 "C:\Users\Huy Le\Documents\VSHOME\SONHA\IWH_SH_I2C\SH1051_PUMP\SH1051_BS84B08C_PUMP\USER_PROGRAM\USER_PROGRAM.C"
  43  0004              public _b_tonggle_temp_in_mode_power_on
  43  0001              @BITDATASEC .section 'data'
  43  0000              _b_tonggle_temp_in_mode_power_on	dbit 0
  43  0001              #pragma debug variable 2 1 _b_tonggle_temp_in_mode_power_on "b_tonggle_temp_in_mode_power_on"
  43  0001              
  43  0004              @HCCINIT .section 'data'
  42  0004              #line 42 "C:\Users\Huy Le\Documents\VSHOME\SONHA\IWH_SH_I2C\SH1051_PUMP\SH1051_BS84B08C_PUMP\USER_PROGRAM\USER_PROGRAM.C"
  42  0004              public _b_tonggle_E3_in_mode_reset
  42  0001              @BITDATASEC .section 'data'
  42  0001  00          _b_tonggle_E3_in_mode_reset	dbit 0
  42  0002              #pragma debug variable 2 1 _b_tonggle_E3_in_mode_reset "b_tonggle_E3_in_mode_reset"
  42  0002              
  42  0004              @HCCINIT .section 'data'
"File: USER_PROGRAM.C  Assembler  Version HGASM0202      Page 29

  41  0004              #line 41 "C:\Users\Huy Le\Documents\VSHOME\SONHA\IWH_SH_I2C\SH1051_PUMP\SH1051_BS84B08C_PUMP\USER_PROGRAM\USER_PROGRAM.C"
  41  0004              public _b_tonggle_E2_in_mode_test
  41  0002              @BITDATASEC .section 'data'
  41  0001              _b_tonggle_E2_in_mode_test	dbit 0
  41  0002              #pragma debug variable 2 1 _b_tonggle_E2_in_mode_test "b_tonggle_E2_in_mode_test"
  41  0002              
  41  0004              @HCCINIT .section 'data'
  36  0004              #line 36 "C:\Users\Huy Le\Documents\VSHOME\SONHA\IWH_SH_I2C\SH1051_PUMP\SH1051_BS84B08C_PUMP\USER_PROGRAM\USER_PROGRAM.C"
  36  0004              public _old_rx_data
  36  000C              @HCCINIT0 .section 'data'
  36  000C              _old_rx_data	db 0
  36  000D              #pragma debug variable 8 1 _old_rx_data "old_rx_data"
  36  000D              
  36  0004              @HCCINIT .section 'data'
  35  0004              #line 35 "C:\Users\Huy Le\Documents\VSHOME\SONHA\IWH_SH_I2C\SH1051_PUMP\SH1051_BS84B08C_PUMP\USER_PROGRAM\USER_PROGRAM.C"
  35  0004              public _comm_timeout_cnt
  35  000D              @HCCINIT0 .section 'data'
  35  000D              _comm_timeout_cnt	db 0
  35  000E              #pragma debug variable 8 1 _comm_timeout_cnt "comm_timeout_cnt"
  35  000E              
  35  0004              @HCCINIT .section 'data'
  33  0004              #line 33 "C:\Users\Huy Le\Documents\VSHOME\SONHA\IWH_SH_I2C\SH1051_PUMP\SH1051_BS84B08C_PUMP\USER_PROGRAM\USER_PROGRAM.C"
  33  0004              public _machine_state
  33  000E              @HCCINIT0 .section 'data'
  33  000E              _machine_state	db 0
  33  000F              #pragma debug variable 8 1 _machine_state "machine_state"
  33  000F              
  33  0004              @HCCINIT .section 'data'
  32  0004              #line 32 "C:\Users\Huy Le\Documents\VSHOME\SONHA\IWH_SH_I2C\SH1051_PUMP\SH1051_BS84B08C_PUMP\USER_PROGRAM\USER_PROGRAM.C"
  32  0004              public _data_handle
  32  000F              @HCCINIT0 .section 'data'
  32  000F  0002[       _data_handle	db 2 dup(0)
            00
            ]
  32  0011              #pragma debug array 43 8 2 1
  32  0011              #pragma debug array 43 8 2 1
  32  0011              #pragma debug variable 43 1 _data_handle "data_handle"
  32  0011              
  32  0004              @HCCINIT .section 'data'
  30  0004              #line 30 "C:\Users\Huy Le\Documents\VSHOME\SONHA\IWH_SH_I2C\SH1051_PUMP\SH1051_BS84B08C_PUMP\USER_PROGRAM\USER_PROGRAM.C"
  30  0004              public _s_tx_data
  30  0011              @HCCINIT0 .section 'data'
  30  0011  0003[       _s_tx_data	db 3 dup(0)
            00
            ]
  30  0014              #pragma debug array 44 8 3 1
  30  0014              #pragma debug array 44 8 3 1
  30  0014              #pragma debug variable 44 1 _s_tx_data "s_tx_data"
  30  0014              
  30  0004              @HCCINIT .section 'data'
  29  0004              #line 29 "C:\Users\Huy Le\Documents\VSHOME\SONHA\IWH_SH_I2C\SH1051_PUMP\SH1051_BS84B08C_PUMP\USER_PROGRAM\USER_PROGRAM.C"
  29  0004              public _s_rx_data
  29  0014              @HCCINIT0 .section 'data'
  29  0014  0003[       _s_rx_data	db 3 dup(0)
            00
            ]
  29  0017              #pragma debug variable 44 1 _s_rx_data "s_rx_data"
  29  0017              
  29  0004              @HCCINIT .section 'data'
  23  0004              #line 23 "C:\Users\Huy Le\Documents\VSHOME\SONHA\IWH_SH_I2C\SH1051_PUMP\SH1051_BS84B08C_PUMP\USER_PROGRAM\USER_PROGRAM.C"
"File: USER_PROGRAM.C  Assembler  Version HGASM0202      Page 30

  23  0004              public _btnPressed
  23  0017              @HCCINIT0 .section 'data'
  23  0017              _btnPressed	db 0
  23  0018              #pragma debug variable 8 1 _btnPressed "btnPressed"
  23  0018              
  23  0004              @HCCINIT .section 'data'
  22  0004              #line 22 "C:\Users\Huy Le\Documents\VSHOME\SONHA\IWH_SH_I2C\SH1051_PUMP\SH1051_BS84B08C_PUMP\USER_PROGRAM\USER_PROGRAM.C"
  22  0004              public _buttonIndexArr
  22  0018              @HCCINIT0 .section 'data'
  22  0018  0003[       _buttonIndexArr	db 3 dup(0)
            00
            ]
  22  001B              #pragma debug variable 44 1 _buttonIndexArr "buttonIndexArr"
  22  001B              
  22  0004              @HCCINIT .section 'data'
  22  0004              #pragma debug struct_end
  22  0004              #pragma debug struct_end
  22  0004              #pragma debug union_end
  22  0004              #pragma debug union_end
  22  0004              #pragma debug variable 46 1 ___pa "__pa" 1
  22  0004              #pragma debug struct_end
  22  0004              #pragma debug struct_end
  22  0004              #pragma debug union_end
  22  0004              #pragma debug union_end
  22  0004              #pragma debug variable 48 1 ___pac "__pac" 1
  22  0004              #pragma debug struct_end
  22  0004              #pragma debug struct_end
  22  0004              #pragma debug union_end
  22  0004              #pragma debug union_end
  22  0004              #pragma debug variable 50 1 ___pd "__pd" 1
  22  0004              
  22  0004              ; output external variables
  22  0004              extern _b_flag_500ms:bit
  22  0004              extern _b_flag_100ms:bit
  22  0004              extern _b_flag_10ms:bit
  22  0004              extern _b_flag_2ms:bit
  22  0004              extern _b_flag_i2c_receive:bit
  22  0004              extern _b_flag500msInPower:bit
  22  0004              extern _b_flag100msInPower:bit
  22  0004              extern _b_flag10msInPower:bit
  22  0004              extern _b_flag2msInPower:bit
  22  0004              extern _b_flag500msInPowerOn:bit
  22  0004              extern _b_flag100msInPowerOn:bit
  22  0004              extern _b_flag10msInPowerOn:bit
  22  0004              extern _b_flag2msInPowerOn:bit
  22  0004              extern _b_flag500msInPowerOff:bit
  22  0004              extern _b_flag500msInTest:bit
  22  0004              extern _b_flag100msInTest:bit
  22  0004              extern _b_flag10msInTest:bit
  22  0004              extern _b_flag2msInTest:bit
  22  0004              extern _b_flag2sInStart:bit
  22  0004              extern _b_flag500msInStart:bit
  22  0004              extern _b_flag100msInStart:bit
  22  0004              extern _b_flag10msInStart:bit
  22  0004              extern _b_flag2msInStart:bit
  22  0004              extern _TIMER_Init:near
  22  0004              extern _TM1628_init:near
  22  0004              extern _I2C_init:near
  22  0004              extern _IO_Init:near
  22  0004              extern _setLedELCB:near
"File: USER_PROGRAM.C  Assembler  Version HGASM0202      Page 31

  22  0004              extern _setLedPump:near
  22  0004              extern _setSeg12_2:byte
  22  0004              extern _setSeg12:near
  22  0004              extern _update:near
  22  0004              extern _set_buzzer_on_2:byte
  22  0004              extern _set_buzzer_on:near
  22  0004              extern _clear:near
  22  0004              extern _clearLedPump:near
  22  0004              extern _clearSeg12:near
  22  0004              extern _set_buzzer_off_forever:near
  22  0004              extern _set_buzzer_on_forever:near
  22  0004              extern _clearLedELCB:near
  22  0004              extern _builtin_holtek_udivmodqi4_2:byte
  22  0004              extern _builtin_holtek_udivmodqi4:near
  22  0004              extern _button_detect_press:near
  22  0004              extern _button_detect_release:near
  22  0004              
  22  0004              ; 
  22  0004              ; Generated by holtek-gcc v3.19, Tue Apr 16 15:16:58 2024
  22  0004              ; Rebuild 718
  22  0004              ; end of file


        0 Errors, 0